Archive member included to satisfy reference by file (symbol)

i:/mcu/gnu_tools_for_arm/11.3_rel1/bin/../lib/gcc/arm-none-eabi/11.3.1/thumb/v7-m/nofp\libc_nano.a(libc_a-exit.o)
                              i:/mcu/gnu_tools_for_arm/11.3_rel1/bin/../lib/gcc/arm-none-eabi/11.3.1/thumb/v7-m/nofp/crt0.o (exit)
i:/mcu/gnu_tools_for_arm/11.3_rel1/bin/../lib/gcc/arm-none-eabi/11.3.1/thumb/v7-m/nofp\libc_nano.a(libc_a-findfp.o)
                              i:/mcu/gnu_tools_for_arm/11.3_rel1/bin/../lib/gcc/arm-none-eabi/11.3.1/thumb/v7-m/nofp\libc_nano.a(libc_a-exit.o) (__stdio_exit_handler)
i:/mcu/gnu_tools_for_arm/11.3_rel1/bin/../lib/gcc/arm-none-eabi/11.3.1/thumb/v7-m/nofp\libc_nano.a(libc_a-fwalk.o)
                              i:/mcu/gnu_tools_for_arm/11.3_rel1/bin/../lib/gcc/arm-none-eabi/11.3.1/thumb/v7-m/nofp\libc_nano.a(libc_a-findfp.o) (_fwalk_sglue)
i:/mcu/gnu_tools_for_arm/11.3_rel1/bin/../lib/gcc/arm-none-eabi/11.3.1/thumb/v7-m/nofp\libc_nano.a(libc_a-printf.o)
                              build/Waveshare_AS7341.o (printf)
i:/mcu/gnu_tools_for_arm/11.3_rel1/bin/../lib/gcc/arm-none-eabi/11.3.1/thumb/v7-m/nofp\libc_nano.a(libc_a-puts.o)
                              build/Waveshare_AS7341.o (puts)
i:/mcu/gnu_tools_for_arm/11.3_rel1/bin/../lib/gcc/arm-none-eabi/11.3.1/thumb/v7-m/nofp\libc_nano.a(libc_a-setvbuf.o)
                              build/retarget.o (setvbuf)
i:/mcu/gnu_tools_for_arm/11.3_rel1/bin/../lib/gcc/arm-none-eabi/11.3.1/thumb/v7-m/nofp\libc_nano.a(libc_a-stdio.o)
                              i:/mcu/gnu_tools_for_arm/11.3_rel1/bin/../lib/gcc/arm-none-eabi/11.3.1/thumb/v7-m/nofp\libc_nano.a(libc_a-findfp.o) (__sread)
i:/mcu/gnu_tools_for_arm/11.3_rel1/bin/../lib/gcc/arm-none-eabi/11.3.1/thumb/v7-m/nofp\libc_nano.a(libc_a-wbuf.o)
                              i:/mcu/gnu_tools_for_arm/11.3_rel1/bin/../lib/gcc/arm-none-eabi/11.3.1/thumb/v7-m/nofp\libc_nano.a(libc_a-puts.o) (__swbuf_r)
i:/mcu/gnu_tools_for_arm/11.3_rel1/bin/../lib/gcc/arm-none-eabi/11.3.1/thumb/v7-m/nofp\libc_nano.a(libc_a-wsetup.o)
                              i:/mcu/gnu_tools_for_arm/11.3_rel1/bin/../lib/gcc/arm-none-eabi/11.3.1/thumb/v7-m/nofp\libc_nano.a(libc_a-puts.o) (__swsetup_r)
i:/mcu/gnu_tools_for_arm/11.3_rel1/bin/../lib/gcc/arm-none-eabi/11.3.1/thumb/v7-m/nofp\libc_nano.a(libc_a-memset.o)
                              i:/mcu/gnu_tools_for_arm/11.3_rel1/bin/../lib/gcc/arm-none-eabi/11.3.1/thumb/v7-m/nofp/crt0.o (memset)
i:/mcu/gnu_tools_for_arm/11.3_rel1/bin/../lib/gcc/arm-none-eabi/11.3.1/thumb/v7-m/nofp\libc_nano.a(libc_a-closer.o)
                              i:/mcu/gnu_tools_for_arm/11.3_rel1/bin/../lib/gcc/arm-none-eabi/11.3.1/thumb/v7-m/nofp\libc_nano.a(libc_a-stdio.o) (_close_r)
i:/mcu/gnu_tools_for_arm/11.3_rel1/bin/../lib/gcc/arm-none-eabi/11.3.1/thumb/v7-m/nofp\libc_nano.a(libc_a-reent.o)
                              i:/mcu/gnu_tools_for_arm/11.3_rel1/bin/../lib/gcc/arm-none-eabi/11.3.1/thumb/v7-m/nofp\libc_nano.a(libc_a-closer.o) (errno)
i:/mcu/gnu_tools_for_arm/11.3_rel1/bin/../lib/gcc/arm-none-eabi/11.3.1/thumb/v7-m/nofp\libc_nano.a(libc_a-impure.o)
                              build/retarget.o (_impure_ptr)
i:/mcu/gnu_tools_for_arm/11.3_rel1/bin/../lib/gcc/arm-none-eabi/11.3.1/thumb/v7-m/nofp\libc_nano.a(libc_a-lseekr.o)
                              i:/mcu/gnu_tools_for_arm/11.3_rel1/bin/../lib/gcc/arm-none-eabi/11.3.1/thumb/v7-m/nofp\libc_nano.a(libc_a-stdio.o) (_lseek_r)
i:/mcu/gnu_tools_for_arm/11.3_rel1/bin/../lib/gcc/arm-none-eabi/11.3.1/thumb/v7-m/nofp\libc_nano.a(libc_a-readr.o)
                              i:/mcu/gnu_tools_for_arm/11.3_rel1/bin/../lib/gcc/arm-none-eabi/11.3.1/thumb/v7-m/nofp\libc_nano.a(libc_a-stdio.o) (_read_r)
i:/mcu/gnu_tools_for_arm/11.3_rel1/bin/../lib/gcc/arm-none-eabi/11.3.1/thumb/v7-m/nofp\libc_nano.a(libc_a-writer.o)
                              i:/mcu/gnu_tools_for_arm/11.3_rel1/bin/../lib/gcc/arm-none-eabi/11.3.1/thumb/v7-m/nofp\libc_nano.a(libc_a-stdio.o) (_write_r)
i:/mcu/gnu_tools_for_arm/11.3_rel1/bin/../lib/gcc/arm-none-eabi/11.3.1/thumb/v7-m/nofp\libc_nano.a(libc_a-errno.o)
                              build/retarget.o (__errno)
i:/mcu/gnu_tools_for_arm/11.3_rel1/bin/../lib/gcc/arm-none-eabi/11.3.1/thumb/v7-m/nofp\libc_nano.a(libc_a-init.o)
                              i:/mcu/gnu_tools_for_arm/11.3_rel1/bin/../lib/gcc/arm-none-eabi/11.3.1/thumb/v7-m/nofp/crt0.o (__libc_init_array)
i:/mcu/gnu_tools_for_arm/11.3_rel1/bin/../lib/gcc/arm-none-eabi/11.3.1/thumb/v7-m/nofp\libc_nano.a(libc_a-lock.o)
                              i:/mcu/gnu_tools_for_arm/11.3_rel1/bin/../lib/gcc/arm-none-eabi/11.3.1/thumb/v7-m/nofp\libc_nano.a(libc_a-findfp.o) (__retarget_lock_init_recursive)
i:/mcu/gnu_tools_for_arm/11.3_rel1/bin/../lib/gcc/arm-none-eabi/11.3.1/thumb/v7-m/nofp\libc_nano.a(libc_a-freer.o)
                              i:/mcu/gnu_tools_for_arm/11.3_rel1/bin/../lib/gcc/arm-none-eabi/11.3.1/thumb/v7-m/nofp\libc_nano.a(libc_a-setvbuf.o) (_free_r)
i:/mcu/gnu_tools_for_arm/11.3_rel1/bin/../lib/gcc/arm-none-eabi/11.3.1/thumb/v7-m/nofp\libc_nano.a(libc_a-malloc.o)
                              i:/mcu/gnu_tools_for_arm/11.3_rel1/bin/../lib/gcc/arm-none-eabi/11.3.1/thumb/v7-m/nofp\libc_nano.a(libc_a-setvbuf.o) (malloc)
i:/mcu/gnu_tools_for_arm/11.3_rel1/bin/../lib/gcc/arm-none-eabi/11.3.1/thumb/v7-m/nofp\libc_nano.a(libc_a-mallocr.o)
                              i:/mcu/gnu_tools_for_arm/11.3_rel1/bin/../lib/gcc/arm-none-eabi/11.3.1/thumb/v7-m/nofp\libc_nano.a(libc_a-findfp.o) (_malloc_r)
i:/mcu/gnu_tools_for_arm/11.3_rel1/bin/../lib/gcc/arm-none-eabi/11.3.1/thumb/v7-m/nofp\libc_nano.a(libc_a-mlock.o)
                              i:/mcu/gnu_tools_for_arm/11.3_rel1/bin/../lib/gcc/arm-none-eabi/11.3.1/thumb/v7-m/nofp\libc_nano.a(libc_a-freer.o) (__malloc_lock)
i:/mcu/gnu_tools_for_arm/11.3_rel1/bin/../lib/gcc/arm-none-eabi/11.3.1/thumb/v7-m/nofp\libc_nano.a(libc_a-nano-vfprintf.o)
                              i:/mcu/gnu_tools_for_arm/11.3_rel1/bin/../lib/gcc/arm-none-eabi/11.3.1/thumb/v7-m/nofp\libc_nano.a(libc_a-printf.o) (_vfprintf_r)
i:/mcu/gnu_tools_for_arm/11.3_rel1/bin/../lib/gcc/arm-none-eabi/11.3.1/thumb/v7-m/nofp\libc_nano.a(libc_a-nano-vfprintf_i.o)
                              i:/mcu/gnu_tools_for_arm/11.3_rel1/bin/../lib/gcc/arm-none-eabi/11.3.1/thumb/v7-m/nofp\libc_nano.a(libc_a-nano-vfprintf.o) (_printf_i)
i:/mcu/gnu_tools_for_arm/11.3_rel1/bin/../lib/gcc/arm-none-eabi/11.3.1/thumb/v7-m/nofp\libc_nano.a(libc_a-fflush.o)
                              i:/mcu/gnu_tools_for_arm/11.3_rel1/bin/../lib/gcc/arm-none-eabi/11.3.1/thumb/v7-m/nofp\libc_nano.a(libc_a-findfp.o) (_fflush_r)
i:/mcu/gnu_tools_for_arm/11.3_rel1/bin/../lib/gcc/arm-none-eabi/11.3.1/thumb/v7-m/nofp\libc_nano.a(libc_a-fvwrite.o)
                              i:/mcu/gnu_tools_for_arm/11.3_rel1/bin/../lib/gcc/arm-none-eabi/11.3.1/thumb/v7-m/nofp\libc_nano.a(libc_a-nano-vfprintf.o) (__sfvwrite_r)
i:/mcu/gnu_tools_for_arm/11.3_rel1/bin/../lib/gcc/arm-none-eabi/11.3.1/thumb/v7-m/nofp\libc_nano.a(libc_a-makebuf.o)
                              i:/mcu/gnu_tools_for_arm/11.3_rel1/bin/../lib/gcc/arm-none-eabi/11.3.1/thumb/v7-m/nofp\libc_nano.a(libc_a-setvbuf.o) (__swhatbuf_r)
i:/mcu/gnu_tools_for_arm/11.3_rel1/bin/../lib/gcc/arm-none-eabi/11.3.1/thumb/v7-m/nofp\libc_nano.a(libc_a-memmove.o)
                              i:/mcu/gnu_tools_for_arm/11.3_rel1/bin/../lib/gcc/arm-none-eabi/11.3.1/thumb/v7-m/nofp\libc_nano.a(libc_a-fvwrite.o) (memmove)
i:/mcu/gnu_tools_for_arm/11.3_rel1/bin/../lib/gcc/arm-none-eabi/11.3.1/thumb/v7-m/nofp\libc_nano.a(libc_a-fstatr.o)
                              i:/mcu/gnu_tools_for_arm/11.3_rel1/bin/../lib/gcc/arm-none-eabi/11.3.1/thumb/v7-m/nofp\libc_nano.a(libc_a-makebuf.o) (_fstat_r)
i:/mcu/gnu_tools_for_arm/11.3_rel1/bin/../lib/gcc/arm-none-eabi/11.3.1/thumb/v7-m/nofp\libc_nano.a(libc_a-isattyr.o)
                              i:/mcu/gnu_tools_for_arm/11.3_rel1/bin/../lib/gcc/arm-none-eabi/11.3.1/thumb/v7-m/nofp\libc_nano.a(libc_a-makebuf.o) (_isatty_r)
i:/mcu/gnu_tools_for_arm/11.3_rel1/bin/../lib/gcc/arm-none-eabi/11.3.1/thumb/v7-m/nofp\libc_nano.a(libc_a-sbrkr.o)
                              i:/mcu/gnu_tools_for_arm/11.3_rel1/bin/../lib/gcc/arm-none-eabi/11.3.1/thumb/v7-m/nofp\libc_nano.a(libc_a-mallocr.o) (_sbrk_r)
i:/mcu/gnu_tools_for_arm/11.3_rel1/bin/../lib/gcc/arm-none-eabi/11.3.1/thumb/v7-m/nofp\libc_nano.a(libc_a-memchr-stub.o)
                              i:/mcu/gnu_tools_for_arm/11.3_rel1/bin/../lib/gcc/arm-none-eabi/11.3.1/thumb/v7-m/nofp\libc_nano.a(libc_a-nano-vfprintf.o) (memchr)
i:/mcu/gnu_tools_for_arm/11.3_rel1/bin/../lib/gcc/arm-none-eabi/11.3.1/thumb/v7-m/nofp\libc_nano.a(libc_a-memcpy-stub.o)
                              i:/mcu/gnu_tools_for_arm/11.3_rel1/bin/../lib/gcc/arm-none-eabi/11.3.1/thumb/v7-m/nofp\libc_nano.a(libc_a-fvwrite.o) (memcpy)
i:/mcu/gnu_tools_for_arm/11.3_rel1/bin/../lib/gcc/arm-none-eabi/11.3.1/thumb/v7-m/nofp\libc_nano.a(libc_a-reallocr.o)
                              i:/mcu/gnu_tools_for_arm/11.3_rel1/bin/../lib/gcc/arm-none-eabi/11.3.1/thumb/v7-m/nofp\libc_nano.a(libc_a-fvwrite.o) (_realloc_r)
i:/mcu/gnu_tools_for_arm/11.3_rel1/bin/../lib/gcc/arm-none-eabi/11.3.1/thumb/v7-m/nofp\libc_nano.a(libc_a-msizer.o)
                              i:/mcu/gnu_tools_for_arm/11.3_rel1/bin/../lib/gcc/arm-none-eabi/11.3.1/thumb/v7-m/nofp\libc_nano.a(libc_a-reallocr.o) (_malloc_usable_size_r)
i:/mcu/gnu_tools_for_arm/11.3_rel1/bin/../lib/gcc/arm-none-eabi/11.3.1/thumb/v7-m/nofp\libm.a(libm_a-w_pow.o)
                              build/Ra_calculate.o (pow)
i:/mcu/gnu_tools_for_arm/11.3_rel1/bin/../lib/gcc/arm-none-eabi/11.3.1/thumb/v7-m/nofp\libm.a(libm_a-w_sqrt.o)
                              build/Ra_calculate.o (sqrt)
i:/mcu/gnu_tools_for_arm/11.3_rel1/bin/../lib/gcc/arm-none-eabi/11.3.1/thumb/v7-m/nofp\libm.a(libm_a-s_finite.o)
                              i:/mcu/gnu_tools_for_arm/11.3_rel1/bin/../lib/gcc/arm-none-eabi/11.3.1/thumb/v7-m/nofp\libm.a(libm_a-w_pow.o) (finite)
i:/mcu/gnu_tools_for_arm/11.3_rel1/bin/../lib/gcc/arm-none-eabi/11.3.1/thumb/v7-m/nofp\libm.a(libm_a-e_sqrt.o)
                              i:/mcu/gnu_tools_for_arm/11.3_rel1/bin/../lib/gcc/arm-none-eabi/11.3.1/thumb/v7-m/nofp\libm.a(libm_a-w_sqrt.o) (__ieee754_sqrt)
i:/mcu/gnu_tools_for_arm/11.3_rel1/bin/../lib/gcc/arm-none-eabi/11.3.1/thumb/v7-m/nofp\libm.a(libm_a-e_pow.o)
                              i:/mcu/gnu_tools_for_arm/11.3_rel1/bin/../lib/gcc/arm-none-eabi/11.3.1/thumb/v7-m/nofp\libm.a(libm_a-w_pow.o) (__ieee754_pow)
i:/mcu/gnu_tools_for_arm/11.3_rel1/bin/../lib/gcc/arm-none-eabi/11.3.1/thumb/v7-m/nofp\libm.a(libm_a-s_fabs.o)
                              i:/mcu/gnu_tools_for_arm/11.3_rel1/bin/../lib/gcc/arm-none-eabi/11.3.1/thumb/v7-m/nofp\libm.a(libm_a-e_pow.o) (fabs)
i:/mcu/gnu_tools_for_arm/11.3_rel1/bin/../lib/gcc/arm-none-eabi/11.3.1/thumb/v7-m/nofp\libm.a(libm_a-s_scalbn.o)
                              i:/mcu/gnu_tools_for_arm/11.3_rel1/bin/../lib/gcc/arm-none-eabi/11.3.1/thumb/v7-m/nofp\libm.a(libm_a-e_pow.o) (scalbn)
i:/mcu/gnu_tools_for_arm/11.3_rel1/bin/../lib/gcc/arm-none-eabi/11.3.1/thumb/v7-m/nofp\libm.a(libm_a-math_err.o)
                              i:/mcu/gnu_tools_for_arm/11.3_rel1/bin/../lib/gcc/arm-none-eabi/11.3.1/thumb/v7-m/nofp\libm.a(libm_a-e_pow.o) (__math_uflow)
i:/mcu/gnu_tools_for_arm/11.3_rel1/bin/../lib/gcc/arm-none-eabi/11.3.1/thumb/v7-m/nofp\libnosys.a(sbrk.o)
                              i:/mcu/gnu_tools_for_arm/11.3_rel1/bin/../lib/gcc/arm-none-eabi/11.3.1/thumb/v7-m/nofp\libc_nano.a(libc_a-sbrkr.o) (_sbrk)
i:/mcu/gnu_tools_for_arm/11.3_rel1/bin/../lib/gcc/arm-none-eabi/11.3.1/thumb/v7-m/nofp\libnosys.a(_exit.o)
                              i:/mcu/gnu_tools_for_arm/11.3_rel1/bin/../lib/gcc/arm-none-eabi/11.3.1/thumb/v7-m/nofp\libc_nano.a(libc_a-exit.o) (_exit)
i:/mcu/gnu_tools_for_arm/11.3_rel1/bin/../lib/gcc/arm-none-eabi/11.3.1/thumb/v7-m/nofp\libgcc.a(_arm_muldf3.o)
                              build/ColorTemperature.o (__aeabi_dmul)
i:/mcu/gnu_tools_for_arm/11.3_rel1/bin/../lib/gcc/arm-none-eabi/11.3.1/thumb/v7-m/nofp\libgcc.a(_arm_mulsf3.o)
                              build/ColorTemperature.o (__aeabi_fmul)
i:/mcu/gnu_tools_for_arm/11.3_rel1/bin/../lib/gcc/arm-none-eabi/11.3.1/thumb/v7-m/nofp\libgcc.a(_arm_addsubdf3.o)
                              build/ColorTemperature.o (__aeabi_dsub)
i:/mcu/gnu_tools_for_arm/11.3_rel1/bin/../lib/gcc/arm-none-eabi/11.3.1/thumb/v7-m/nofp\libgcc.a(_arm_muldivdf3.o)
                              build/ColorTemperature.o (__aeabi_ddiv)
i:/mcu/gnu_tools_for_arm/11.3_rel1/bin/../lib/gcc/arm-none-eabi/11.3.1/thumb/v7-m/nofp\libgcc.a(_arm_cmpdf2.o)
                              i:/mcu/gnu_tools_for_arm/11.3_rel1/bin/../lib/gcc/arm-none-eabi/11.3.1/thumb/v7-m/nofp\libm.a(libm_a-w_pow.o) (__aeabi_dcmpeq)
i:/mcu/gnu_tools_for_arm/11.3_rel1/bin/../lib/gcc/arm-none-eabi/11.3.1/thumb/v7-m/nofp\libgcc.a(_arm_unorddf2.o)
                              i:/mcu/gnu_tools_for_arm/11.3_rel1/bin/../lib/gcc/arm-none-eabi/11.3.1/thumb/v7-m/nofp\libm.a(libm_a-w_pow.o) (__aeabi_dcmpun)
i:/mcu/gnu_tools_for_arm/11.3_rel1/bin/../lib/gcc/arm-none-eabi/11.3.1/thumb/v7-m/nofp\libgcc.a(_arm_truncdfsf2.o)
                              build/ColorTemperature.o (__aeabi_d2f)
i:/mcu/gnu_tools_for_arm/11.3_rel1/bin/../lib/gcc/arm-none-eabi/11.3.1/thumb/v7-m/nofp\libgcc.a(_arm_addsubsf3.o)
                              build/Ra_calculate.o (__aeabi_fsub)
i:/mcu/gnu_tools_for_arm/11.3_rel1/bin/../lib/gcc/arm-none-eabi/11.3.1/thumb/v7-m/nofp\libgcc.a(_arm_muldivsf3.o)
                              build/ColorTemperature.o (__aeabi_fdiv)
i:/mcu/gnu_tools_for_arm/11.3_rel1/bin/../lib/gcc/arm-none-eabi/11.3.1/thumb/v7-m/nofp\libgcc.a(_arm_cmpsf2.o)
                              build/ColorTemperature.o (__aeabi_fcmpeq)
i:/mcu/gnu_tools_for_arm/11.3_rel1/bin/../lib/gcc/arm-none-eabi/11.3.1/thumb/v7-m/nofp\libgcc.a(_arm_fixunssfsi.o)
                              build/ColorTemperature.o (__aeabi_f2uiz)

Discarded input sections

 .text          0x00000000        0x0 i:/mcu/gnu_tools_for_arm/11.3_rel1/bin/../lib/gcc/arm-none-eabi/11.3.1/thumb/v7-m/nofp/crti.o
 .data          0x00000000        0x0 i:/mcu/gnu_tools_for_arm/11.3_rel1/bin/../lib/gcc/arm-none-eabi/11.3.1/thumb/v7-m/nofp/crti.o
 .bss           0x00000000        0x0 i:/mcu/gnu_tools_for_arm/11.3_rel1/bin/../lib/gcc/arm-none-eabi/11.3.1/thumb/v7-m/nofp/crti.o
 .text          0x00000000        0x0 i:/mcu/gnu_tools_for_arm/11.3_rel1/bin/../lib/gcc/arm-none-eabi/11.3.1/thumb/v7-m/nofp/crtbegin.o
 .data          0x00000000        0x0 i:/mcu/gnu_tools_for_arm/11.3_rel1/bin/../lib/gcc/arm-none-eabi/11.3.1/thumb/v7-m/nofp/crtbegin.o
 .bss           0x00000000        0x0 i:/mcu/gnu_tools_for_arm/11.3_rel1/bin/../lib/gcc/arm-none-eabi/11.3.1/thumb/v7-m/nofp/crtbegin.o
 .rodata.all_implied_fbits
                0x00000000       0x24 i:/mcu/gnu_tools_for_arm/11.3_rel1/bin/../lib/gcc/arm-none-eabi/11.3.1/thumb/v7-m/nofp/crtbegin.o
 .data.__dso_handle
                0x00000000        0x4 i:/mcu/gnu_tools_for_arm/11.3_rel1/bin/../lib/gcc/arm-none-eabi/11.3.1/thumb/v7-m/nofp/crtbegin.o
 .text          0x00000000       0x7c i:/mcu/gnu_tools_for_arm/11.3_rel1/bin/../lib/gcc/arm-none-eabi/11.3.1/thumb/v7-m/nofp/crt0.o
 .data          0x00000000        0x0 i:/mcu/gnu_tools_for_arm/11.3_rel1/bin/../lib/gcc/arm-none-eabi/11.3.1/thumb/v7-m/nofp/crt0.o
 .bss           0x00000000        0x0 i:/mcu/gnu_tools_for_arm/11.3_rel1/bin/../lib/gcc/arm-none-eabi/11.3.1/thumb/v7-m/nofp/crt0.o
 .ARM.extab     0x00000000        0x0 i:/mcu/gnu_tools_for_arm/11.3_rel1/bin/../lib/gcc/arm-none-eabi/11.3.1/thumb/v7-m/nofp/crt0.o
 .ARM.exidx     0x00000000       0x10 i:/mcu/gnu_tools_for_arm/11.3_rel1/bin/../lib/gcc/arm-none-eabi/11.3.1/thumb/v7-m/nofp/crt0.o
 .debug_line    0x00000000       0x76 i:/mcu/gnu_tools_for_arm/11.3_rel1/bin/../lib/gcc/arm-none-eabi/11.3.1/thumb/v7-m/nofp/crt0.o
 .debug_line_str
                0x00000000       0xe6 i:/mcu/gnu_tools_for_arm/11.3_rel1/bin/../lib/gcc/arm-none-eabi/11.3.1/thumb/v7-m/nofp/crt0.o
 .debug_info    0x00000000       0x24 i:/mcu/gnu_tools_for_arm/11.3_rel1/bin/../lib/gcc/arm-none-eabi/11.3.1/thumb/v7-m/nofp/crt0.o
 .debug_abbrev  0x00000000       0x14 i:/mcu/gnu_tools_for_arm/11.3_rel1/bin/../lib/gcc/arm-none-eabi/11.3.1/thumb/v7-m/nofp/crt0.o
 .debug_aranges
                0x00000000       0x20 i:/mcu/gnu_tools_for_arm/11.3_rel1/bin/../lib/gcc/arm-none-eabi/11.3.1/thumb/v7-m/nofp/crt0.o
 .debug_str     0x00000000       0xeb i:/mcu/gnu_tools_for_arm/11.3_rel1/bin/../lib/gcc/arm-none-eabi/11.3.1/thumb/v7-m/nofp/crt0.o
 .ARM.attributes
                0x00000000       0x1b i:/mcu/gnu_tools_for_arm/11.3_rel1/bin/../lib/gcc/arm-none-eabi/11.3.1/thumb/v7-m/nofp/crt0.o
 .text          0x00000000        0x0 build/main.o
 .data          0x00000000        0x0 build/main.o
 .bss           0x00000000        0x0 build/main.o
 .bss.cdc_now   0x00000000        0x2 build/main.o
 .text          0x00000000        0x0 build/gpio.o
 .data          0x00000000        0x0 build/gpio.o
 .bss           0x00000000        0x0 build/gpio.o
 .text          0x00000000        0x0 build/i2c.o
 .data          0x00000000        0x0 build/i2c.o
 .bss           0x00000000        0x0 build/i2c.o
 .text.HAL_I2C_MspDeInit
                0x00000000       0x64 build/i2c.o
 .text          0x00000000        0x0 build/usart.o
 .data          0x00000000        0x0 build/usart.o
 .bss           0x00000000        0x0 build/usart.o
 .text.HAL_UART_MspDeInit
                0x00000000       0x30 build/usart.o
 .text          0x00000000        0x0 build/stm32f1xx_it.o
 .data          0x00000000        0x0 build/stm32f1xx_it.o
 .bss           0x00000000        0x0 build/stm32f1xx_it.o
 .text          0x00000000        0x0 build/stm32f1xx_hal_msp.o
 .data          0x00000000        0x0 build/stm32f1xx_hal_msp.o
 .bss           0x00000000        0x0 build/stm32f1xx_hal_msp.o
 .text          0x00000000        0x0 build/stm32f1xx_hal_gpio_ex.o
 .data          0x00000000        0x0 build/stm32f1xx_hal_gpio_ex.o
 .bss           0x00000000        0x0 build/stm32f1xx_hal_gpio_ex.o
 .text.HAL_GPIOEx_ConfigEventout
                0x00000000       0x14 build/stm32f1xx_hal_gpio_ex.o
 .text.HAL_GPIOEx_EnableEventout
                0x00000000       0x10 build/stm32f1xx_hal_gpio_ex.o
 .text.HAL_GPIOEx_DisableEventout
                0x00000000       0x10 build/stm32f1xx_hal_gpio_ex.o
 .debug_info    0x00000000      0x176 build/stm32f1xx_hal_gpio_ex.o
 .debug_abbrev  0x00000000       0xdc build/stm32f1xx_hal_gpio_ex.o
 .debug_loc     0x00000000       0x25 build/stm32f1xx_hal_gpio_ex.o
 .debug_aranges
                0x00000000       0x30 build/stm32f1xx_hal_gpio_ex.o
 .debug_ranges  0x00000000       0x20 build/stm32f1xx_hal_gpio_ex.o
 .debug_line    0x00000000      0x181 build/stm32f1xx_hal_gpio_ex.o
 .debug_str     0x00000000      0x21a build/stm32f1xx_hal_gpio_ex.o
 .comment       0x00000000       0x34 build/stm32f1xx_hal_gpio_ex.o
 .debug_frame   0x00000000       0x40 build/stm32f1xx_hal_gpio_ex.o
 .ARM.attributes
                0x00000000       0x2d build/stm32f1xx_hal_gpio_ex.o
 .text          0x00000000        0x0 build/stm32f1xx_hal_i2c.o
 .data          0x00000000        0x0 build/stm32f1xx_hal_i2c.o
 .bss           0x00000000        0x0 build/stm32f1xx_hal_i2c.o
 .text.I2C_Master_SB
                0x00000000       0xa8 build/stm32f1xx_hal_i2c.o
 .text.I2C_Master_ADD10
                0x00000000       0x2a build/stm32f1xx_hal_i2c.o
 .text.I2C_Master_ADDR
                0x00000000      0x248 build/stm32f1xx_hal_i2c.o
 .text.I2C_SlaveTransmit_BTF
                0x00000000       0x20 build/stm32f1xx_hal_i2c.o
 .text.I2C_SlaveReceive_BTF
                0x00000000       0x20 build/stm32f1xx_hal_i2c.o
 .text.I2C_WaitOnSTOPRequestThroughIT
                0x00000000       0x48 build/stm32f1xx_hal_i2c.o
 .text.I2C_ConvertOtherXferOptions
                0x00000000       0x1e build/stm32f1xx_hal_i2c.o
 .text.I2C_MasterRequestWrite
                0x00000000       0xb4 build/stm32f1xx_hal_i2c.o
 .text.I2C_MasterRequestRead
                0x00000000      0x120 build/stm32f1xx_hal_i2c.o
 .text.I2C_WaitOnSTOPFlagUntilTimeout
                0x00000000       0x4e build/stm32f1xx_hal_i2c.o
 .text.HAL_I2C_MspInit
                0x00000000        0x2 build/stm32f1xx_hal_i2c.o
 .text.HAL_I2C_MspDeInit
                0x00000000        0x2 build/stm32f1xx_hal_i2c.o
 .text.HAL_I2C_DeInit
                0x00000000       0x32 build/stm32f1xx_hal_i2c.o
 .text.HAL_I2C_Master_Transmit
                0x00000000      0x178 build/stm32f1xx_hal_i2c.o
 .text.HAL_I2C_Master_Receive
                0x00000000      0x344 build/stm32f1xx_hal_i2c.o
 .text.HAL_I2C_Slave_Transmit
                0x00000000      0x1a4 build/stm32f1xx_hal_i2c.o
 .text.HAL_I2C_Slave_Receive
                0x00000000      0x180 build/stm32f1xx_hal_i2c.o
 .text.HAL_I2C_Master_Transmit_IT
                0x00000000       0xd8 build/stm32f1xx_hal_i2c.o
 .text.HAL_I2C_Master_Receive_IT
                0x00000000       0xe4 build/stm32f1xx_hal_i2c.o
 .text.HAL_I2C_Slave_Transmit_IT
                0x00000000       0x8c build/stm32f1xx_hal_i2c.o
 .text.HAL_I2C_Slave_Receive_IT
                0x00000000       0x8c build/stm32f1xx_hal_i2c.o
 .text.HAL_I2C_Master_Transmit_DMA
                0x00000000      0x184 build/stm32f1xx_hal_i2c.o
 .text.HAL_I2C_Master_Receive_DMA
                0x00000000      0x184 build/stm32f1xx_hal_i2c.o
 .text.HAL_I2C_Slave_Transmit_DMA
                0x00000000      0x100 build/stm32f1xx_hal_i2c.o
 .text.HAL_I2C_Slave_Receive_DMA
                0x00000000      0x100 build/stm32f1xx_hal_i2c.o
 .text.HAL_I2C_Mem_Write_IT
                0x00000000       0xe4 build/stm32f1xx_hal_i2c.o
 .text.HAL_I2C_Mem_Read_IT
                0x00000000       0xf4 build/stm32f1xx_hal_i2c.o
 .text.HAL_I2C_Mem_Write_DMA
                0x00000000      0x1c8 build/stm32f1xx_hal_i2c.o
 .text.HAL_I2C_Mem_Read_DMA
                0x00000000      0x208 build/stm32f1xx_hal_i2c.o
 .text.HAL_I2C_IsDeviceReady
                0x00000000      0x194 build/stm32f1xx_hal_i2c.o
 .text.HAL_I2C_Master_Seq_Transmit_IT
                0x00000000      0x100 build/stm32f1xx_hal_i2c.o
 .text.HAL_I2C_Master_Seq_Transmit_DMA
                0x00000000      0x1cc build/stm32f1xx_hal_i2c.o
 .text.HAL_I2C_Master_Seq_Receive_IT
                0x00000000      0x150 build/stm32f1xx_hal_i2c.o
 .text.HAL_I2C_Master_Seq_Receive_DMA
                0x00000000      0x23c build/stm32f1xx_hal_i2c.o
 .text.HAL_I2C_Slave_Seq_Transmit_IT
                0x00000000       0x90 build/stm32f1xx_hal_i2c.o
 .text.HAL_I2C_Slave_Seq_Transmit_DMA
                0x00000000      0x19c build/stm32f1xx_hal_i2c.o
 .text.HAL_I2C_Slave_Seq_Receive_IT
                0x00000000       0x90 build/stm32f1xx_hal_i2c.o
 .text.HAL_I2C_Slave_Seq_Receive_DMA
                0x00000000      0x19c build/stm32f1xx_hal_i2c.o
 .text.HAL_I2C_EnableListen_IT
                0x00000000       0x3e build/stm32f1xx_hal_i2c.o
 .text.HAL_I2C_DisableListen_IT
                0x00000000       0x42 build/stm32f1xx_hal_i2c.o
 .text.HAL_I2C_MasterTxCpltCallback
                0x00000000        0x2 build/stm32f1xx_hal_i2c.o
 .text.HAL_I2C_MasterRxCpltCallback
                0x00000000        0x2 build/stm32f1xx_hal_i2c.o
 .text.HAL_I2C_SlaveTxCpltCallback
                0x00000000        0x2 build/stm32f1xx_hal_i2c.o
 .text.I2C_SlaveTransmit_TXE
                0x00000000       0x4c build/stm32f1xx_hal_i2c.o
 .text.HAL_I2C_SlaveRxCpltCallback
                0x00000000        0x2 build/stm32f1xx_hal_i2c.o
 .text.I2C_SlaveReceive_RXNE
                0x00000000       0x4c build/stm32f1xx_hal_i2c.o
 .text.HAL_I2C_AddrCallback
                0x00000000        0x2 build/stm32f1xx_hal_i2c.o
 .text.I2C_Slave_ADDR
                0x00000000       0x5a build/stm32f1xx_hal_i2c.o
 .text.HAL_I2C_ListenCpltCallback
                0x00000000        0x2 build/stm32f1xx_hal_i2c.o
 .text.I2C_Slave_AF
                0x00000000       0x94 build/stm32f1xx_hal_i2c.o
 .text.HAL_I2C_MemTxCpltCallback
                0x00000000        0x2 build/stm32f1xx_hal_i2c.o
 .text.I2C_MasterTransmit_BTF
                0x00000000       0x9e build/stm32f1xx_hal_i2c.o
 .text.I2C_MemoryTransmit_TXE_BTF
                0x00000000       0xbe build/stm32f1xx_hal_i2c.o
 .text.I2C_MasterTransmit_TXE
                0x00000000       0xd0 build/stm32f1xx_hal_i2c.o
 .text.HAL_I2C_MemRxCpltCallback
                0x00000000        0x2 build/stm32f1xx_hal_i2c.o
 .text.I2C_MasterReceive_BTF
                0x00000000      0x132 build/stm32f1xx_hal_i2c.o
 .text.HAL_I2C_ErrorCallback
                0x00000000        0x2 build/stm32f1xx_hal_i2c.o
 .text.I2C_DMAError
                0x00000000       0x3a build/stm32f1xx_hal_i2c.o
 .text.I2C_DMAXferCplt
                0x00000000      0x122 build/stm32f1xx_hal_i2c.o
 .text.I2C_MasterReceive_RXNE
                0x00000000       0xec build/stm32f1xx_hal_i2c.o
 .text.HAL_I2C_AbortCpltCallback
                0x00000000        0x2 build/stm32f1xx_hal_i2c.o
 .text.I2C_DMAAbort
                0x00000000       0xe4 build/stm32f1xx_hal_i2c.o
 .text.I2C_ITError
                0x00000000      0x174 build/stm32f1xx_hal_i2c.o
 .text.HAL_I2C_Master_Abort_IT
                0x00000000       0x64 build/stm32f1xx_hal_i2c.o
 .text.I2C_Slave_STOPF
                0x00000000      0x18c build/stm32f1xx_hal_i2c.o
 .text.HAL_I2C_EV_IRQHandler
                0x00000000      0x1a0 build/stm32f1xx_hal_i2c.o
 .text.HAL_I2C_ER_IRQHandler
                0x00000000       0xc6 build/stm32f1xx_hal_i2c.o
 .text.HAL_I2C_GetState
                0x00000000        0x6 build/stm32f1xx_hal_i2c.o
 .text.HAL_I2C_GetMode
                0x00000000        0x6 build/stm32f1xx_hal_i2c.o
 .text.HAL_I2C_GetError
                0x00000000        0x4 build/stm32f1xx_hal_i2c.o
 .text          0x00000000        0x0 build/stm32f1xx_hal.o
 .data          0x00000000        0x0 build/stm32f1xx_hal.o
 .bss           0x00000000        0x0 build/stm32f1xx_hal.o
 .text.HAL_MspInit
                0x00000000        0x2 build/stm32f1xx_hal.o
 .text.HAL_MspDeInit
                0x00000000        0x2 build/stm32f1xx_hal.o
 .text.HAL_DeInit
                0x00000000       0x20 build/stm32f1xx_hal.o
 .text.HAL_GetTickPrio
                0x00000000        0xc build/stm32f1xx_hal.o
 .text.HAL_SetTickFreq
                0x00000000       0x2c build/stm32f1xx_hal.o
 .text.HAL_GetTickFreq
                0x00000000        0xc build/stm32f1xx_hal.o
 .text.HAL_SuspendTick
                0x00000000        0xe build/stm32f1xx_hal.o
 .text.HAL_ResumeTick
                0x00000000        0xe build/stm32f1xx_hal.o
 .text.HAL_GetHalVersion
                0x00000000        0x8 build/stm32f1xx_hal.o
 .text.HAL_GetREVID
                0x00000000        0xc build/stm32f1xx_hal.o
 .text.HAL_GetDEVID
                0x00000000       0x10 build/stm32f1xx_hal.o
 .text.HAL_GetUIDw0
                0x00000000        0xc build/stm32f1xx_hal.o
 .text.HAL_GetUIDw1
                0x00000000        0xc build/stm32f1xx_hal.o
 .text.HAL_GetUIDw2
                0x00000000        0xc build/stm32f1xx_hal.o
 .text.HAL_DBGMCU_EnableDBGSleepMode
                0x00000000       0x10 build/stm32f1xx_hal.o
 .text.HAL_DBGMCU_DisableDBGSleepMode
                0x00000000       0x10 build/stm32f1xx_hal.o
 .text.HAL_DBGMCU_EnableDBGStopMode
                0x00000000       0x10 build/stm32f1xx_hal.o
 .text.HAL_DBGMCU_DisableDBGStopMode
                0x00000000       0x10 build/stm32f1xx_hal.o
 .text.HAL_DBGMCU_EnableDBGStandbyMode
                0x00000000       0x10 build/stm32f1xx_hal.o
 .text.HAL_DBGMCU_DisableDBGStandbyMode
                0x00000000       0x10 build/stm32f1xx_hal.o
 .text          0x00000000        0x0 build/stm32f1xx_hal_rcc.o
 .data          0x00000000        0x0 build/stm32f1xx_hal_rcc.o
 .bss           0x00000000        0x0 build/stm32f1xx_hal_rcc.o
 .text.HAL_RCC_DeInit
                0x00000000       0xf4 build/stm32f1xx_hal_rcc.o
 .text.HAL_RCC_MCOConfig
                0x00000000       0x50 build/stm32f1xx_hal_rcc.o
 .text.HAL_RCC_EnableCSS
                0x00000000        0xc build/stm32f1xx_hal_rcc.o
 .text.HAL_RCC_DisableCSS
                0x00000000        0xc build/stm32f1xx_hal_rcc.o
 .text.HAL_RCC_GetOscConfig
                0x00000000       0xb4 build/stm32f1xx_hal_rcc.o
 .text.HAL_RCC_GetClockConfig
                0x00000000       0x3c build/stm32f1xx_hal_rcc.o
 .text.HAL_RCC_CSSCallback
                0x00000000        0x2 build/stm32f1xx_hal_rcc.o
 .text.HAL_RCC_NMI_IRQHandler
                0x00000000       0x20 build/stm32f1xx_hal_rcc.o
 .text          0x00000000        0x0 build/stm32f1xx_hal_rcc_ex.o
 .data          0x00000000        0x0 build/stm32f1xx_hal_rcc_ex.o
 .bss           0x00000000        0x0 build/stm32f1xx_hal_rcc_ex.o
 .text.HAL_RCCEx_PeriphCLKConfig
                0x00000000      0x118 build/stm32f1xx_hal_rcc_ex.o
 .text.HAL_RCCEx_GetPeriphCLKConfig
                0x00000000       0x3c build/stm32f1xx_hal_rcc_ex.o
 .rodata.HAL_RCCEx_GetPeriphCLKFreq.str1.4
                0x00000000       0x11 build/stm32f1xx_hal_rcc_ex.o
 .text.HAL_RCCEx_GetPeriphCLKFreq
                0x00000000      0x114 build/stm32f1xx_hal_rcc_ex.o
 .debug_info    0x00000000      0x4b9 build/stm32f1xx_hal_rcc_ex.o
 .debug_abbrev  0x00000000      0x1d4 build/stm32f1xx_hal_rcc_ex.o
 .debug_loc     0x00000000      0x4a6 build/stm32f1xx_hal_rcc_ex.o
 .debug_aranges
                0x00000000       0x30 build/stm32f1xx_hal_rcc_ex.o
 .debug_ranges  0x00000000       0x38 build/stm32f1xx_hal_rcc_ex.o
 .debug_line    0x00000000      0x490 build/stm32f1xx_hal_rcc_ex.o
 .debug_str     0x00000000      0x3d4 build/stm32f1xx_hal_rcc_ex.o
 .comment       0x00000000       0x34 build/stm32f1xx_hal_rcc_ex.o
 .debug_frame   0x00000000       0x64 build/stm32f1xx_hal_rcc_ex.o
 .ARM.attributes
                0x00000000       0x2d build/stm32f1xx_hal_rcc_ex.o
 .text          0x00000000        0x0 build/stm32f1xx_hal_gpio.o
 .data          0x00000000        0x0 build/stm32f1xx_hal_gpio.o
 .bss           0x00000000        0x0 build/stm32f1xx_hal_gpio.o
 .text.HAL_GPIO_DeInit
                0x00000000      0x128 build/stm32f1xx_hal_gpio.o
 .text.HAL_GPIO_ReadPin
                0x00000000        0xe build/stm32f1xx_hal_gpio.o
 .text.HAL_GPIO_TogglePin
                0x00000000       0x12 build/stm32f1xx_hal_gpio.o
 .text.HAL_GPIO_LockPin
                0x00000000       0x2e build/stm32f1xx_hal_gpio.o
 .text.HAL_GPIO_EXTI_Callback
                0x00000000        0x2 build/stm32f1xx_hal_gpio.o
 .text.HAL_GPIO_EXTI_IRQHandler
                0x00000000       0x1c build/stm32f1xx_hal_gpio.o
 .text          0x00000000        0x0 build/stm32f1xx_hal_dma.o
 .data          0x00000000        0x0 build/stm32f1xx_hal_dma.o
 .bss           0x00000000        0x0 build/stm32f1xx_hal_dma.o
 .text.DMA_SetConfig
                0x00000000       0x2c build/stm32f1xx_hal_dma.o
 .text.HAL_DMA_Init
                0x00000000       0x98 build/stm32f1xx_hal_dma.o
 .text.HAL_DMA_DeInit
                0x00000000       0x90 build/stm32f1xx_hal_dma.o
 .text.HAL_DMA_Start
                0x00000000       0x50 build/stm32f1xx_hal_dma.o
 .text.HAL_DMA_Start_IT
                0x00000000       0x74 build/stm32f1xx_hal_dma.o
 .text.HAL_DMA_Abort
                0x00000000       0x44 build/stm32f1xx_hal_dma.o
 .text.HAL_DMA_Abort_IT
                0x00000000      0x168 build/stm32f1xx_hal_dma.o
 .text.HAL_DMA_PollForTransfer
                0x00000000      0x548 build/stm32f1xx_hal_dma.o
 .text.HAL_DMA_IRQHandler
                0x00000000      0x2ec build/stm32f1xx_hal_dma.o
 .text.HAL_DMA_RegisterCallback
                0x00000000       0x4a build/stm32f1xx_hal_dma.o
 .text.HAL_DMA_UnRegisterCallback
                0x00000000       0x5a build/stm32f1xx_hal_dma.o
 .text.HAL_DMA_GetState
                0x00000000        0x6 build/stm32f1xx_hal_dma.o
 .text.HAL_DMA_GetError
                0x00000000        0x4 build/stm32f1xx_hal_dma.o
 .debug_info    0x00000000      0x8b7 build/stm32f1xx_hal_dma.o
 .debug_abbrev  0x00000000      0x261 build/stm32f1xx_hal_dma.o
 .debug_loc     0x00000000      0x8e4 build/stm32f1xx_hal_dma.o
 .debug_aranges
                0x00000000       0x80 build/stm32f1xx_hal_dma.o
 .debug_ranges  0x00000000       0x70 build/stm32f1xx_hal_dma.o
 .debug_line    0x00000000      0xcad build/stm32f1xx_hal_dma.o
 .debug_str     0x00000000      0x5c0 build/stm32f1xx_hal_dma.o
 .comment       0x00000000       0x34 build/stm32f1xx_hal_dma.o
 .debug_frame   0x00000000      0x140 build/stm32f1xx_hal_dma.o
 .ARM.attributes
                0x00000000       0x2d build/stm32f1xx_hal_dma.o
 .text          0x00000000        0x0 build/stm32f1xx_hal_cortex.o
 .data          0x00000000        0x0 build/stm32f1xx_hal_cortex.o
 .bss           0x00000000        0x0 build/stm32f1xx_hal_cortex.o
 .text.HAL_NVIC_EnableIRQ
                0x00000000       0x1c build/stm32f1xx_hal_cortex.o
 .text.HAL_NVIC_DisableIRQ
                0x00000000       0x24 build/stm32f1xx_hal_cortex.o
 .text.HAL_NVIC_SystemReset
                0x00000000       0x24 build/stm32f1xx_hal_cortex.o
 .text.HAL_NVIC_GetPriorityGrouping
                0x00000000       0x10 build/stm32f1xx_hal_cortex.o
 .text.HAL_NVIC_GetPriority
                0x00000000       0x60 build/stm32f1xx_hal_cortex.o
 .text.HAL_NVIC_SetPendingIRQ
                0x00000000       0x1c build/stm32f1xx_hal_cortex.o
 .text.HAL_NVIC_GetPendingIRQ
                0x00000000       0x24 build/stm32f1xx_hal_cortex.o
 .text.HAL_NVIC_ClearPendingIRQ
                0x00000000       0x1c build/stm32f1xx_hal_cortex.o
 .text.HAL_NVIC_GetActive
                0x00000000       0x24 build/stm32f1xx_hal_cortex.o
 .text.HAL_SYSTICK_CLKSourceConfig
                0x00000000       0x20 build/stm32f1xx_hal_cortex.o
 .text.HAL_SYSTICK_Callback
                0x00000000        0x2 build/stm32f1xx_hal_cortex.o
 .text.HAL_SYSTICK_IRQHandler
                0x00000000        0x8 build/stm32f1xx_hal_cortex.o
 .text          0x00000000        0x0 build/stm32f1xx_hal_pwr.o
 .data          0x00000000        0x0 build/stm32f1xx_hal_pwr.o
 .bss           0x00000000        0x0 build/stm32f1xx_hal_pwr.o
 .text.PWR_OverloadWfe
                0x00000000        0x6 build/stm32f1xx_hal_pwr.o
 .text.HAL_PWR_DeInit
                0x00000000       0x18 build/stm32f1xx_hal_pwr.o
 .text.HAL_PWR_EnableBkUpAccess
                0x00000000        0xc build/stm32f1xx_hal_pwr.o
 .text.HAL_PWR_DisableBkUpAccess
                0x00000000        0xc build/stm32f1xx_hal_pwr.o
 .text.HAL_PWR_ConfigPVD
                0x00000000       0x84 build/stm32f1xx_hal_pwr.o
 .text.HAL_PWR_EnablePVD
                0x00000000        0xc build/stm32f1xx_hal_pwr.o
 .text.HAL_PWR_DisablePVD
                0x00000000        0xc build/stm32f1xx_hal_pwr.o
 .text.HAL_PWR_EnableWakeUpPin
                0x00000000       0x18 build/stm32f1xx_hal_pwr.o
 .text.HAL_PWR_DisableWakeUpPin
                0x00000000       0x18 build/stm32f1xx_hal_pwr.o
 .text.HAL_PWR_EnterSLEEPMode
                0x00000000       0x20 build/stm32f1xx_hal_pwr.o
 .text.HAL_PWR_EnterSTOPMode
                0x00000000       0x48 build/stm32f1xx_hal_pwr.o
 .text.HAL_PWR_EnterSTANDBYMode
                0x00000000       0x20 build/stm32f1xx_hal_pwr.o
 .text.HAL_PWR_EnableSleepOnExit
                0x00000000       0x10 build/stm32f1xx_hal_pwr.o
 .text.HAL_PWR_DisableSleepOnExit
                0x00000000       0x10 build/stm32f1xx_hal_pwr.o
 .text.HAL_PWR_EnableSEVOnPend
                0x00000000       0x10 build/stm32f1xx_hal_pwr.o
 .text.HAL_PWR_DisableSEVOnPend
                0x00000000       0x10 build/stm32f1xx_hal_pwr.o
 .text.HAL_PWR_PVDCallback
                0x00000000        0x2 build/stm32f1xx_hal_pwr.o
 .text.HAL_PWR_PVD_IRQHandler
                0x00000000       0x20 build/stm32f1xx_hal_pwr.o
 .debug_info    0x00000000      0x748 build/stm32f1xx_hal_pwr.o
 .debug_abbrev  0x00000000      0x1fc build/stm32f1xx_hal_pwr.o
 .debug_loc     0x00000000      0x182 build/stm32f1xx_hal_pwr.o
 .debug_aranges
                0x00000000       0xa8 build/stm32f1xx_hal_pwr.o
 .debug_ranges  0x00000000       0x98 build/stm32f1xx_hal_pwr.o
 .debug_line    0x00000000      0x424 build/stm32f1xx_hal_pwr.o
 .debug_str     0x00000000      0x45e build/stm32f1xx_hal_pwr.o
 .comment       0x00000000       0x34 build/stm32f1xx_hal_pwr.o
 .debug_frame   0x00000000      0x140 build/stm32f1xx_hal_pwr.o
 .ARM.attributes
                0x00000000       0x2d build/stm32f1xx_hal_pwr.o
 .text          0x00000000        0x0 build/stm32f1xx_hal_flash.o
 .data          0x00000000        0x0 build/stm32f1xx_hal_flash.o
 .bss           0x00000000        0x0 build/stm32f1xx_hal_flash.o
 .text.FLASH_Program_HalfWord
                0x00000000       0x1c build/stm32f1xx_hal_flash.o
 .text.FLASH_SetErrorCode
                0x00000000       0x70 build/stm32f1xx_hal_flash.o
 .text.HAL_FLASH_Program_IT
                0x00000000       0x6c build/stm32f1xx_hal_flash.o
 .text.HAL_FLASH_EndOfOperationCallback
                0x00000000        0x2 build/stm32f1xx_hal_flash.o
 .text.HAL_FLASH_OperationErrorCallback
                0x00000000        0x2 build/stm32f1xx_hal_flash.o
 .text.HAL_FLASH_IRQHandler
                0x00000000      0x154 build/stm32f1xx_hal_flash.o
 .text.HAL_FLASH_Unlock
                0x00000000       0x34 build/stm32f1xx_hal_flash.o
 .text.HAL_FLASH_Lock
                0x00000000       0x14 build/stm32f1xx_hal_flash.o
 .text.HAL_FLASH_OB_Unlock
                0x00000000       0x28 build/stm32f1xx_hal_flash.o
 .text.HAL_FLASH_OB_Lock
                0x00000000       0x14 build/stm32f1xx_hal_flash.o
 .text.HAL_FLASH_OB_Launch
                0x00000000        0x8 build/stm32f1xx_hal_flash.o
 .text.HAL_FLASH_GetError
                0x00000000        0xc build/stm32f1xx_hal_flash.o
 .text.FLASH_WaitForLastOperation
                0x00000000       0x68 build/stm32f1xx_hal_flash.o
 .text.HAL_FLASH_Program
                0x00000000       0xa0 build/stm32f1xx_hal_flash.o
 .bss.pFlash    0x00000000       0x20 build/stm32f1xx_hal_flash.o
 .debug_info    0x00000000      0x6fd build/stm32f1xx_hal_flash.o
 .debug_abbrev  0x00000000      0x285 build/stm32f1xx_hal_flash.o
 .debug_loc     0x00000000      0x442 build/stm32f1xx_hal_flash.o
 .debug_aranges
                0x00000000       0x88 build/stm32f1xx_hal_flash.o
 .debug_ranges  0x00000000       0x78 build/stm32f1xx_hal_flash.o
 .debug_line    0x00000000      0x73c build/stm32f1xx_hal_flash.o
 .debug_str     0x00000000      0x4f2 build/stm32f1xx_hal_flash.o
 .comment       0x00000000       0x34 build/stm32f1xx_hal_flash.o
 .debug_frame   0x00000000      0x134 build/stm32f1xx_hal_flash.o
 .ARM.attributes
                0x00000000       0x2d build/stm32f1xx_hal_flash.o
 .text          0x00000000        0x0 build/stm32f1xx_hal_flash_ex.o
 .data          0x00000000        0x0 build/stm32f1xx_hal_flash_ex.o
 .bss           0x00000000        0x0 build/stm32f1xx_hal_flash_ex.o
 .text.FLASH_MassErase
                0x00000000       0x24 build/stm32f1xx_hal_flash_ex.o
 .text.FLASH_OB_GetWRP
                0x00000000        0xc build/stm32f1xx_hal_flash_ex.o
 .text.FLASH_OB_GetRDP
                0x00000000       0x18 build/stm32f1xx_hal_flash_ex.o
 .text.FLASH_OB_GetUser
                0x00000000       0x10 build/stm32f1xx_hal_flash_ex.o
 .text.FLASH_OB_RDP_LevelConfig
                0x00000000       0x68 build/stm32f1xx_hal_flash_ex.o
 .text.FLASH_OB_UserConfig
                0x00000000       0x48 build/stm32f1xx_hal_flash_ex.o
 .text.FLASH_OB_ProgramData
                0x00000000       0x40 build/stm32f1xx_hal_flash_ex.o
 .text.HAL_FLASHEx_OBErase
                0x00000000       0x50 build/stm32f1xx_hal_flash_ex.o
 .text.FLASH_OB_EnableWRP
                0x00000000       0xc4 build/stm32f1xx_hal_flash_ex.o
 .text.FLASH_OB_DisableWRP
                0x00000000       0xc8 build/stm32f1xx_hal_flash_ex.o
 .text.HAL_FLASHEx_OBProgram
                0x00000000       0x9c build/stm32f1xx_hal_flash_ex.o
 .text.HAL_FLASHEx_OBGetConfig
                0x00000000       0x1c build/stm32f1xx_hal_flash_ex.o
 .text.HAL_FLASHEx_OBGetUserData
                0x00000000       0x24 build/stm32f1xx_hal_flash_ex.o
 .text.FLASH_PageErase
                0x00000000       0x24 build/stm32f1xx_hal_flash_ex.o
 .text.HAL_FLASHEx_Erase
                0x00000000       0xa4 build/stm32f1xx_hal_flash_ex.o
 .text.HAL_FLASHEx_Erase_IT
                0x00000000       0x60 build/stm32f1xx_hal_flash_ex.o
 .debug_info    0x00000000      0xb94 build/stm32f1xx_hal_flash_ex.o
 .debug_abbrev  0x00000000      0x297 build/stm32f1xx_hal_flash_ex.o
 .debug_loc     0x00000000      0x989 build/stm32f1xx_hal_flash_ex.o
 .debug_aranges
                0x00000000       0x98 build/stm32f1xx_hal_flash_ex.o
 .debug_ranges  0x00000000       0x88 build/stm32f1xx_hal_flash_ex.o
 .debug_line    0x00000000      0x8c4 build/stm32f1xx_hal_flash_ex.o
 .debug_str     0x00000000      0x608 build/stm32f1xx_hal_flash_ex.o
 .comment       0x00000000       0x34 build/stm32f1xx_hal_flash_ex.o
 .debug_frame   0x00000000      0x194 build/stm32f1xx_hal_flash_ex.o
 .ARM.attributes
                0x00000000       0x2d build/stm32f1xx_hal_flash_ex.o
 .text          0x00000000        0x0 build/stm32f1xx_hal_exti.o
 .data          0x00000000        0x0 build/stm32f1xx_hal_exti.o
 .bss           0x00000000        0x0 build/stm32f1xx_hal_exti.o
 .text.HAL_EXTI_SetConfigLine
                0x00000000       0xd8 build/stm32f1xx_hal_exti.o
 .text.HAL_EXTI_GetConfigLine
                0x00000000       0xac build/stm32f1xx_hal_exti.o
 .text.HAL_EXTI_ClearConfigLine
                0x00000000       0x84 build/stm32f1xx_hal_exti.o
 .text.HAL_EXTI_RegisterCallback
                0x00000000        0xe build/stm32f1xx_hal_exti.o
 .text.HAL_EXTI_GetHandle
                0x00000000        0xc build/stm32f1xx_hal_exti.o
 .text.HAL_EXTI_IRQHandler
                0x00000000       0x24 build/stm32f1xx_hal_exti.o
 .text.HAL_EXTI_GetPending
                0x00000000       0x18 build/stm32f1xx_hal_exti.o
 .text.HAL_EXTI_ClearPending
                0x00000000       0x14 build/stm32f1xx_hal_exti.o
 .text.HAL_EXTI_GenerateSWI
                0x00000000       0x14 build/stm32f1xx_hal_exti.o
 .debug_info    0x00000000      0x602 build/stm32f1xx_hal_exti.o
 .debug_abbrev  0x00000000      0x200 build/stm32f1xx_hal_exti.o
 .debug_loc     0x00000000      0x4ee build/stm32f1xx_hal_exti.o
 .debug_aranges
                0x00000000       0x60 build/stm32f1xx_hal_exti.o
 .debug_ranges  0x00000000       0x50 build/stm32f1xx_hal_exti.o
 .debug_line    0x00000000      0x5ad build/stm32f1xx_hal_exti.o
 .debug_str     0x00000000      0x399 build/stm32f1xx_hal_exti.o
 .comment       0x00000000       0x34 build/stm32f1xx_hal_exti.o
 .debug_frame   0x00000000       0xd4 build/stm32f1xx_hal_exti.o
 .ARM.attributes
                0x00000000       0x2d build/stm32f1xx_hal_exti.o
 .text          0x00000000        0x0 build/stm32f1xx_hal_tim.o
 .data          0x00000000        0x0 build/stm32f1xx_hal_tim.o
 .bss           0x00000000        0x0 build/stm32f1xx_hal_tim.o
 .debug_info    0x00000000       0x6b build/stm32f1xx_hal_tim.o
 .debug_abbrev  0x00000000       0x26 build/stm32f1xx_hal_tim.o
 .debug_aranges
                0x00000000       0x18 build/stm32f1xx_hal_tim.o
 .debug_line    0x00000000       0x1d build/stm32f1xx_hal_tim.o
 .debug_str     0x00000000      0x166 build/stm32f1xx_hal_tim.o
 .comment       0x00000000       0x34 build/stm32f1xx_hal_tim.o
 .ARM.attributes
                0x00000000       0x2d build/stm32f1xx_hal_tim.o
 .text          0x00000000        0x0 build/stm32f1xx_hal_tim_ex.o
 .data          0x00000000        0x0 build/stm32f1xx_hal_tim_ex.o
 .bss           0x00000000        0x0 build/stm32f1xx_hal_tim_ex.o
 .debug_info    0x00000000       0x6b build/stm32f1xx_hal_tim_ex.o
 .debug_abbrev  0x00000000       0x26 build/stm32f1xx_hal_tim_ex.o
 .debug_aranges
                0x00000000       0x18 build/stm32f1xx_hal_tim_ex.o
 .debug_line    0x00000000       0x1d build/stm32f1xx_hal_tim_ex.o
 .debug_str     0x00000000      0x169 build/stm32f1xx_hal_tim_ex.o
 .comment       0x00000000       0x34 build/stm32f1xx_hal_tim_ex.o
 .ARM.attributes
                0x00000000       0x2d build/stm32f1xx_hal_tim_ex.o
 .text          0x00000000        0x0 build/stm32f1xx_hal_uart.o
 .data          0x00000000        0x0 build/stm32f1xx_hal_uart.o
 .bss           0x00000000        0x0 build/stm32f1xx_hal_uart.o
 .text.UART_EndTxTransfer
                0x00000000       0x12 build/stm32f1xx_hal_uart.o
 .text.UART_EndRxTransfer
                0x00000000       0x32 build/stm32f1xx_hal_uart.o
 .text.UART_Transmit_IT
                0x00000000       0x60 build/stm32f1xx_hal_uart.o
 .text.HAL_UART_MspInit
                0x00000000        0x2 build/stm32f1xx_hal_uart.o
 .text.HAL_HalfDuplex_Init
                0x00000000       0x6a build/stm32f1xx_hal_uart.o
 .text.HAL_LIN_Init
                0x00000000       0x80 build/stm32f1xx_hal_uart.o
 .text.HAL_MultiProcessor_Init
                0x00000000       0x8a build/stm32f1xx_hal_uart.o
 .text.HAL_UART_MspDeInit
                0x00000000        0x2 build/stm32f1xx_hal_uart.o
 .text.HAL_UART_DeInit
                0x00000000       0x32 build/stm32f1xx_hal_uart.o
 .text.HAL_UART_Transmit_IT
                0x00000000       0x4e build/stm32f1xx_hal_uart.o
 .text.HAL_UART_Transmit_DMA
                0x00000000       0x8c build/stm32f1xx_hal_uart.o
 .text.HAL_UART_DMAPause
                0x00000000       0x70 build/stm32f1xx_hal_uart.o
 .text.HAL_UART_DMAResume
                0x00000000       0x74 build/stm32f1xx_hal_uart.o
 .text.HAL_UART_DMAStop
                0x00000000       0x64 build/stm32f1xx_hal_uart.o
 .text.HAL_UARTEx_ReceiveToIdle
                0x00000000      0x138 build/stm32f1xx_hal_uart.o
 .text.HAL_UART_Abort
                0x00000000       0xa8 build/stm32f1xx_hal_uart.o
 .text.HAL_UART_AbortTransmit
                0x00000000       0x4e build/stm32f1xx_hal_uart.o
 .text.HAL_UART_AbortReceive
                0x00000000       0x6c build/stm32f1xx_hal_uart.o
 .text.HAL_UART_TxCpltCallback
                0x00000000        0x2 build/stm32f1xx_hal_uart.o
 .text.UART_DMATransmitCplt
                0x00000000       0x30 build/stm32f1xx_hal_uart.o
 .text.UART_EndTransmit_IT
                0x00000000       0x1a build/stm32f1xx_hal_uart.o
 .text.HAL_UART_TxHalfCpltCallback
                0x00000000        0x2 build/stm32f1xx_hal_uart.o
 .text.UART_DMATxHalfCplt
                0x00000000        0xa build/stm32f1xx_hal_uart.o
 .text.HAL_UART_RxCpltCallback
                0x00000000        0x2 build/stm32f1xx_hal_uart.o
 .text.HAL_UART_RxHalfCpltCallback
                0x00000000        0x2 build/stm32f1xx_hal_uart.o
 .text.HAL_UART_ErrorCallback
                0x00000000        0x2 build/stm32f1xx_hal_uart.o
 .text.UART_DMAError
                0x00000000       0x58 build/stm32f1xx_hal_uart.o
 .text.UART_DMAAbortOnError
                0x00000000       0x10 build/stm32f1xx_hal_uart.o
 .text.HAL_UART_AbortCpltCallback
                0x00000000        0x2 build/stm32f1xx_hal_uart.o
 .text.HAL_UART_Abort_IT
                0x00000000       0xdc build/stm32f1xx_hal_uart.o
 .text.UART_DMARxAbortCallback
                0x00000000       0x2c build/stm32f1xx_hal_uart.o
 .text.UART_DMATxAbortCallback
                0x00000000       0x2c build/stm32f1xx_hal_uart.o
 .text.HAL_UART_AbortTransmitCpltCallback
                0x00000000        0x2 build/stm32f1xx_hal_uart.o
 .text.HAL_UART_AbortTransmit_IT
                0x00000000       0x60 build/stm32f1xx_hal_uart.o
 .text.UART_DMATxOnlyAbortCallback
                0x00000000       0x14 build/stm32f1xx_hal_uart.o
 .text.HAL_UART_AbortReceiveCpltCallback
                0x00000000        0x2 build/stm32f1xx_hal_uart.o
 .text.HAL_UART_AbortReceive_IT
                0x00000000       0x84 build/stm32f1xx_hal_uart.o
 .text.UART_DMARxOnlyAbortCallback
                0x00000000       0x16 build/stm32f1xx_hal_uart.o
 .text.HAL_UARTEx_RxEventCallback
                0x00000000        0x2 build/stm32f1xx_hal_uart.o
 .text.UART_Receive_IT
                0x00000000       0xd4 build/stm32f1xx_hal_uart.o
 .text.HAL_UART_IRQHandler
                0x00000000      0x204 build/stm32f1xx_hal_uart.o
 .text.UART_DMARxHalfCplt
                0x00000000       0x1a build/stm32f1xx_hal_uart.o
 .text.UART_DMAReceiveCplt
                0x00000000       0x5e build/stm32f1xx_hal_uart.o
 .text.HAL_LIN_SendBreak
                0x00000000       0x32 build/stm32f1xx_hal_uart.o
 .text.HAL_MultiProcessor_EnterMuteMode
                0x00000000       0x32 build/stm32f1xx_hal_uart.o
 .text.HAL_MultiProcessor_ExitMuteMode
                0x00000000       0x32 build/stm32f1xx_hal_uart.o
 .text.HAL_HalfDuplex_EnableTransmitter
                0x00000000       0x36 build/stm32f1xx_hal_uart.o
 .text.HAL_HalfDuplex_EnableReceiver
                0x00000000       0x36 build/stm32f1xx_hal_uart.o
 .text.HAL_UART_GetState
                0x00000000        0xc build/stm32f1xx_hal_uart.o
 .text.HAL_UART_GetError
                0x00000000        0x4 build/stm32f1xx_hal_uart.o
 .text.UART_Start_Receive_IT
                0x00000000       0x36 build/stm32f1xx_hal_uart.o
 .text.HAL_UART_Receive_IT
                0x00000000       0x38 build/stm32f1xx_hal_uart.o
 .text.HAL_UARTEx_ReceiveToIdle_IT
                0x00000000       0x60 build/stm32f1xx_hal_uart.o
 .text.UART_Start_Receive_DMA
                0x00000000       0x78 build/stm32f1xx_hal_uart.o
 .text.HAL_UART_Receive_DMA
                0x00000000       0x38 build/stm32f1xx_hal_uart.o
 .text.HAL_UARTEx_ReceiveToIdle_DMA
                0x00000000       0x60 build/stm32f1xx_hal_uart.o
 .text          0x00000000        0x0 build/system_stm32f1xx.o
 .data          0x00000000        0x0 build/system_stm32f1xx.o
 .bss           0x00000000        0x0 build/system_stm32f1xx.o
 .text.SystemCoreClockUpdate
                0x00000000       0x94 build/system_stm32f1xx.o
 .text          0x00000000        0x0 build/Waveshare_AS7341.o
 .data          0x00000000        0x0 build/Waveshare_AS7341.o
 .bss           0x00000000        0x0 build/Waveshare_AS7341.o
 .text.AS7341_EnableFlickerDetection
                0x00000000       0x22 build/Waveshare_AS7341.o
 .text.FDConfig
                0x00000000       0xa4 build/Waveshare_AS7341.o
 .rodata.AS7341_ReadFlickerData.str1.4
                0x00000000        0xf build/Waveshare_AS7341.o
 .text.AS7341_ReadFlickerData
                0x00000000       0x84 build/Waveshare_AS7341.o
 .rodata.AS7341_INTerrupt.str1.4
                0x00000000       0x23 build/Waveshare_AS7341.o
 .text.AS7341_INTerrupt
                0x00000000       0x1c build/Waveshare_AS7341.o
 .text.AS7341_ClearInterrupt
                0x00000000        0xc build/Waveshare_AS7341.o
 .text.AS7341_EnableSpectralInterrupt
                0x00000000       0x28 build/Waveshare_AS7341.o
 .text.AS7341_SetInterruptPersistence
                0x00000000       0x12 build/Waveshare_AS7341.o
 .text.AS7341_SetThreshold
                0x00000000       0x34 build/Waveshare_AS7341.o
 .text.AS7341_SetSpectralThresholdChannel
                0x00000000        0xc build/Waveshare_AS7341.o
 .text.AS7341_GetLowThreshold
                0x00000000       0x18 build/Waveshare_AS7341.o
 .text.AS7341_GetHighThreshold
                0x00000000       0x18 build/Waveshare_AS7341.o
 .text.AS7341_SynsINT_sel
                0x00000000        0xc build/Waveshare_AS7341.o
 .text.AS7341_disableALL
                0x00000000        0xc build/Waveshare_AS7341.o
 .text          0x00000000        0x0 build/DEV_Config.o
 .data          0x00000000        0x0 build/DEV_Config.o
 .bss           0x00000000        0x0 build/DEV_Config.o
 .text.DEV_GPIO_Mode
                0x00000000       0x28 build/DEV_Config.o
 .text.GPIO_Config
                0x00000000        0x2 build/DEV_Config.o
 .text.DEV_SPI_Init
                0x00000000        0x2 build/DEV_Config.o
 .text.DEV_SPI_WriteByte
                0x00000000        0x2 build/DEV_Config.o
 .text.DEV_SPI_Write_nByte
                0x00000000        0x2 build/DEV_Config.o
 .text.I2C_Read_Word
                0x00000000       0x40 build/DEV_Config.o
 .text.DEV_ModuleExit
                0x00000000        0x2 build/DEV_Config.o
 .bss.DEV_SPI_Device
                0x00000000        0x1 build/DEV_Config.o
 .text          0x00000000        0x0 build/ColorTemperature.o
 .data          0x00000000        0x0 build/ColorTemperature.o
 .bss           0x00000000        0x0 build/ColorTemperature.o
 .text.ColorRenderingFactor
                0x00000000       0x16 build/ColorTemperature.o
 .text          0x00000000        0x0 build/clear.o
 .data          0x00000000        0x0 build/clear.o
 .bss           0x00000000        0x0 build/clear.o
 .rodata.Clear_all.str1.4
                0x00000000       0x27 build/clear.o
 .text.Clear_all
                0x00000000       0x24 build/clear.o
 .debug_info    0x00000000      0x14f build/clear.o
 .debug_abbrev  0x00000000       0xdc build/clear.o
 .debug_loc     0x00000000       0x20 build/clear.o
 .debug_aranges
                0x00000000       0x20 build/clear.o
 .debug_ranges  0x00000000       0x10 build/clear.o
 .debug_line    0x00000000      0x13e build/clear.o
 .debug_str     0x00000000      0x1b1 build/clear.o
 .comment       0x00000000       0x34 build/clear.o
 .debug_frame   0x00000000       0x28 build/clear.o
 .ARM.attributes
                0x00000000       0x2d build/clear.o
 .text          0x00000000        0x0 build/Getdata_test.o
 .data          0x00000000        0x0 build/Getdata_test.o
 .bss           0x00000000        0x0 build/Getdata_test.o
 .rodata.Getdata_test.str1.4
                0x00000000       0xf4 build/Getdata_test.o
 .text.Getdata_test
                0x00000000      0x134 build/Getdata_test.o
 .text          0x00000000        0x0 build/Getflicker_test.o
 .data          0x00000000        0x0 build/Getflicker_test.o
 .bss           0x00000000        0x0 build/Getflicker_test.o
 .rodata.Getflicker_test.str1.4
                0x00000000       0x22 build/Getflicker_test.o
 .text.Getflicker_test
                0x00000000       0x2c build/Getflicker_test.o
 .debug_info    0x00000000      0x18c build/Getflicker_test.o
 .debug_abbrev  0x00000000      0x104 build/Getflicker_test.o
 .debug_loc     0x00000000       0x42 build/Getflicker_test.o
 .debug_aranges
                0x00000000       0x20 build/Getflicker_test.o
 .debug_ranges  0x00000000       0x28 build/Getflicker_test.o
 .debug_line    0x00000000      0x15e build/Getflicker_test.o
 .debug_str     0x00000000      0x1d5 build/Getflicker_test.o
 .comment       0x00000000       0x34 build/Getflicker_test.o
 .debug_frame   0x00000000       0x28 build/Getflicker_test.o
 .ARM.attributes
                0x00000000       0x2d build/Getflicker_test.o
 .text          0x00000000        0x0 build/INT_test.o
 .data          0x00000000        0x0 build/INT_test.o
 .bss           0x00000000        0x0 build/INT_test.o
 .rodata.INT_test.str1.4
                0x00000000       0x25 build/INT_test.o
 .text.INT_test
                0x00000000       0x70 build/INT_test.o
 .debug_info    0x00000000      0x3ef build/INT_test.o
 .debug_abbrev  0x00000000      0x171 build/INT_test.o
 .debug_loc     0x00000000       0x2c build/INT_test.o
 .debug_aranges
                0x00000000       0x20 build/INT_test.o
 .debug_ranges  0x00000000       0x10 build/INT_test.o
 .debug_line    0x00000000      0x1c7 build/INT_test.o
 .debug_str     0x00000000      0x331 build/INT_test.o
 .comment       0x00000000       0x34 build/INT_test.o
 .debug_frame   0x00000000       0x28 build/INT_test.o
 .ARM.attributes
                0x00000000       0x2d build/INT_test.o
 .text          0x00000000        0x0 build/pinINT_test.o
 .data          0x00000000        0x0 build/pinINT_test.o
 .bss           0x00000000        0x0 build/pinINT_test.o
 .rodata.pinINT_test.str1.4
                0x00000000       0x45 build/pinINT_test.o
 .text.pinINT_test
                0x00000000       0x98 build/pinINT_test.o
 .debug_info    0x00000000      0x4d8 build/pinINT_test.o
 .debug_abbrev  0x00000000      0x1b6 build/pinINT_test.o
 .debug_loc     0x00000000       0x2c build/pinINT_test.o
 .debug_aranges
                0x00000000       0x20 build/pinINT_test.o
 .debug_ranges  0x00000000       0x28 build/pinINT_test.o
 .debug_line    0x00000000      0x232 build/pinINT_test.o
 .debug_str     0x00000000      0x336 build/pinINT_test.o
 .comment       0x00000000       0x34 build/pinINT_test.o
 .debug_frame   0x00000000       0x28 build/pinINT_test.o
 .ARM.attributes
                0x00000000       0x2d build/pinINT_test.o
 .text          0x00000000        0x0 build/Syns_test.o
 .data          0x00000000        0x0 build/Syns_test.o
 .bss           0x00000000        0x0 build/Syns_test.o
 .rodata.Syns_test.str1.4
                0x00000000       0xb1 build/Syns_test.o
 .text.Syns_test
                0x00000000       0xcc build/Syns_test.o
 .debug_info    0x00000000      0x46f build/Syns_test.o
 .debug_abbrev  0x00000000      0x15e build/Syns_test.o
 .debug_loc     0x00000000       0x2c build/Syns_test.o
 .debug_aranges
                0x00000000       0x20 build/Syns_test.o
 .debug_ranges  0x00000000       0x10 build/Syns_test.o
 .debug_line    0x00000000      0x1c2 build/Syns_test.o
 .debug_str     0x00000000      0x2ae build/Syns_test.o
 .comment       0x00000000       0x34 build/Syns_test.o
 .debug_frame   0x00000000       0x28 build/Syns_test.o
 .ARM.attributes
                0x00000000       0x2d build/Syns_test.o
 .text          0x00000000        0x0 build/Ra_calculate.o
 .data          0x00000000        0x0 build/Ra_calculate.o
 .bss           0x00000000        0x0 build/Ra_calculate.o
 .rodata.c_1    0x00000000        0x4 build/Ra_calculate.o
 .rodata.c_2    0x00000000        0x4 build/Ra_calculate.o
 .rodata.value_e
                0x00000000        0x4 build/Ra_calculate.o
 .text          0x00000000        0x0 build/retarget.o
 .data          0x00000000        0x0 build/retarget.o
 .bss           0x00000000        0x0 build/retarget.o
 .text          0x00000000       0x14 build/startup_stm32f103xe.o
 .data          0x00000000        0x0 build/startup_stm32f103xe.o
 .bss           0x00000000        0x0 build/startup_stm32f103xe.o
 .text          0x00000000        0x0 i:/mcu/gnu_tools_for_arm/11.3_rel1/bin/../lib/gcc/arm-none-eabi/11.3.1/thumb/v7-m/nofp\libc_nano.a(libc_a-exit.o)
 .data          0x00000000        0x0 i:/mcu/gnu_tools_for_arm/11.3_rel1/bin/../lib/gcc/arm-none-eabi/11.3.1/thumb/v7-m/nofp\libc_nano.a(libc_a-exit.o)
 .bss           0x00000000        0x0 i:/mcu/gnu_tools_for_arm/11.3_rel1/bin/../lib/gcc/arm-none-eabi/11.3.1/thumb/v7-m/nofp\libc_nano.a(libc_a-exit.o)
 .text.exit     0x00000000       0x24 i:/mcu/gnu_tools_for_arm/11.3_rel1/bin/../lib/gcc/arm-none-eabi/11.3.1/thumb/v7-m/nofp\libc_nano.a(libc_a-exit.o)
 .debug_info    0x00000000      0x121 i:/mcu/gnu_tools_for_arm/11.3_rel1/bin/../lib/gcc/arm-none-eabi/11.3.1/thumb/v7-m/nofp\libc_nano.a(libc_a-exit.o)
 .debug_abbrev  0x00000000       0xea i:/mcu/gnu_tools_for_arm/11.3_rel1/bin/../lib/gcc/arm-none-eabi/11.3.1/thumb/v7-m/nofp\libc_nano.a(libc_a-exit.o)
 .debug_loclists
                0x00000000       0x20 i:/mcu/gnu_tools_for_arm/11.3_rel1/bin/../lib/gcc/arm-none-eabi/11.3.1/thumb/v7-m/nofp\libc_nano.a(libc_a-exit.o)
 .debug_aranges
                0x00000000       0x20 i:/mcu/gnu_tools_for_arm/11.3_rel1/bin/../lib/gcc/arm-none-eabi/11.3.1/thumb/v7-m/nofp\libc_nano.a(libc_a-exit.o)
 .debug_rnglists
                0x00000000       0x13 i:/mcu/gnu_tools_for_arm/11.3_rel1/bin/../lib/gcc/arm-none-eabi/11.3.1/thumb/v7-m/nofp\libc_nano.a(libc_a-exit.o)
 .debug_line    0x00000000      0x182 i:/mcu/gnu_tools_for_arm/11.3_rel1/bin/../lib/gcc/arm-none-eabi/11.3.1/thumb/v7-m/nofp\libc_nano.a(libc_a-exit.o)
 .debug_str     0x00000000      0x22a i:/mcu/gnu_tools_for_arm/11.3_rel1/bin/../lib/gcc/arm-none-eabi/11.3.1/thumb/v7-m/nofp\libc_nano.a(libc_a-exit.o)
 .comment       0x00000000       0x34 i:/mcu/gnu_tools_for_arm/11.3_rel1/bin/../lib/gcc/arm-none-eabi/11.3.1/thumb/v7-m/nofp\libc_nano.a(libc_a-exit.o)
 .debug_frame   0x00000000       0x28 i:/mcu/gnu_tools_for_arm/11.3_rel1/bin/../lib/gcc/arm-none-eabi/11.3.1/thumb/v7-m/nofp\libc_nano.a(libc_a-exit.o)
 .ARM.attributes
                0x00000000       0x2d i:/mcu/gnu_tools_for_arm/11.3_rel1/bin/../lib/gcc/arm-none-eabi/11.3.1/thumb/v7-m/nofp\libc_nano.a(libc_a-exit.o)
 .text          0x00000000        0x0 i:/mcu/gnu_tools_for_arm/11.3_rel1/bin/../lib/gcc/arm-none-eabi/11.3.1/thumb/v7-m/nofp\libc_nano.a(libc_a-findfp.o)
 .data          0x00000000        0x0 i:/mcu/gnu_tools_for_arm/11.3_rel1/bin/../lib/gcc/arm-none-eabi/11.3.1/thumb/v7-m/nofp\libc_nano.a(libc_a-findfp.o)
 .bss           0x00000000        0x0 i:/mcu/gnu_tools_for_arm/11.3_rel1/bin/../lib/gcc/arm-none-eabi/11.3.1/thumb/v7-m/nofp\libc_nano.a(libc_a-findfp.o)
 .text.__fp_lock
                0x00000000       0x18 i:/mcu/gnu_tools_for_arm/11.3_rel1/bin/../lib/gcc/arm-none-eabi/11.3.1/thumb/v7-m/nofp\libc_nano.a(libc_a-findfp.o)
 .text.__fp_unlock
                0x00000000       0x18 i:/mcu/gnu_tools_for_arm/11.3_rel1/bin/../lib/gcc/arm-none-eabi/11.3.1/thumb/v7-m/nofp\libc_nano.a(libc_a-findfp.o)
 .text.__sfp    0x00000000       0xa8 i:/mcu/gnu_tools_for_arm/11.3_rel1/bin/../lib/gcc/arm-none-eabi/11.3.1/thumb/v7-m/nofp\libc_nano.a(libc_a-findfp.o)
 .text.__fp_lock_all
                0x00000000       0x1c i:/mcu/gnu_tools_for_arm/11.3_rel1/bin/../lib/gcc/arm-none-eabi/11.3.1/thumb/v7-m/nofp\libc_nano.a(libc_a-findfp.o)
 .text.__fp_unlock_all
                0x00000000       0x1c i:/mcu/gnu_tools_for_arm/11.3_rel1/bin/../lib/gcc/arm-none-eabi/11.3.1/thumb/v7-m/nofp\libc_nano.a(libc_a-findfp.o)
 .text          0x00000000        0x0 i:/mcu/gnu_tools_for_arm/11.3_rel1/bin/../lib/gcc/arm-none-eabi/11.3.1/thumb/v7-m/nofp\libc_nano.a(libc_a-fwalk.o)
 .data          0x00000000        0x0 i:/mcu/gnu_tools_for_arm/11.3_rel1/bin/../lib/gcc/arm-none-eabi/11.3.1/thumb/v7-m/nofp\libc_nano.a(libc_a-fwalk.o)
 .bss           0x00000000        0x0 i:/mcu/gnu_tools_for_arm/11.3_rel1/bin/../lib/gcc/arm-none-eabi/11.3.1/thumb/v7-m/nofp\libc_nano.a(libc_a-fwalk.o)
 .text          0x00000000        0x0 i:/mcu/gnu_tools_for_arm/11.3_rel1/bin/../lib/gcc/arm-none-eabi/11.3.1/thumb/v7-m/nofp\libc_nano.a(libc_a-printf.o)
 .data          0x00000000        0x0 i:/mcu/gnu_tools_for_arm/11.3_rel1/bin/../lib/gcc/arm-none-eabi/11.3.1/thumb/v7-m/nofp\libc_nano.a(libc_a-printf.o)
 .bss           0x00000000        0x0 i:/mcu/gnu_tools_for_arm/11.3_rel1/bin/../lib/gcc/arm-none-eabi/11.3.1/thumb/v7-m/nofp\libc_nano.a(libc_a-printf.o)
 .text._printf_r
                0x00000000       0x1c i:/mcu/gnu_tools_for_arm/11.3_rel1/bin/../lib/gcc/arm-none-eabi/11.3.1/thumb/v7-m/nofp\libc_nano.a(libc_a-printf.o)
 .text          0x00000000        0x0 i:/mcu/gnu_tools_for_arm/11.3_rel1/bin/../lib/gcc/arm-none-eabi/11.3.1/thumb/v7-m/nofp\libc_nano.a(libc_a-puts.o)
 .data          0x00000000        0x0 i:/mcu/gnu_tools_for_arm/11.3_rel1/bin/../lib/gcc/arm-none-eabi/11.3.1/thumb/v7-m/nofp\libc_nano.a(libc_a-puts.o)
 .bss           0x00000000        0x0 i:/mcu/gnu_tools_for_arm/11.3_rel1/bin/../lib/gcc/arm-none-eabi/11.3.1/thumb/v7-m/nofp\libc_nano.a(libc_a-puts.o)
 .text          0x00000000        0x0 i:/mcu/gnu_tools_for_arm/11.3_rel1/bin/../lib/gcc/arm-none-eabi/11.3.1/thumb/v7-m/nofp\libc_nano.a(libc_a-setvbuf.o)
 .data          0x00000000        0x0 i:/mcu/gnu_tools_for_arm/11.3_rel1/bin/../lib/gcc/arm-none-eabi/11.3.1/thumb/v7-m/nofp\libc_nano.a(libc_a-setvbuf.o)
 .bss           0x00000000        0x0 i:/mcu/gnu_tools_for_arm/11.3_rel1/bin/../lib/gcc/arm-none-eabi/11.3.1/thumb/v7-m/nofp\libc_nano.a(libc_a-setvbuf.o)
 .text          0x00000000        0x0 i:/mcu/gnu_tools_for_arm/11.3_rel1/bin/../lib/gcc/arm-none-eabi/11.3.1/thumb/v7-m/nofp\libc_nano.a(libc_a-stdio.o)
 .data          0x00000000        0x0 i:/mcu/gnu_tools_for_arm/11.3_rel1/bin/../lib/gcc/arm-none-eabi/11.3.1/thumb/v7-m/nofp\libc_nano.a(libc_a-stdio.o)
 .bss           0x00000000        0x0 i:/mcu/gnu_tools_for_arm/11.3_rel1/bin/../lib/gcc/arm-none-eabi/11.3.1/thumb/v7-m/nofp\libc_nano.a(libc_a-stdio.o)
 .text.__seofread
                0x00000000        0x4 i:/mcu/gnu_tools_for_arm/11.3_rel1/bin/../lib/gcc/arm-none-eabi/11.3.1/thumb/v7-m/nofp\libc_nano.a(libc_a-stdio.o)
 .text          0x00000000        0x0 i:/mcu/gnu_tools_for_arm/11.3_rel1/bin/../lib/gcc/arm-none-eabi/11.3.1/thumb/v7-m/nofp\libc_nano.a(libc_a-wbuf.o)
 .data          0x00000000        0x0 i:/mcu/gnu_tools_for_arm/11.3_rel1/bin/../lib/gcc/arm-none-eabi/11.3.1/thumb/v7-m/nofp\libc_nano.a(libc_a-wbuf.o)
 .bss           0x00000000        0x0 i:/mcu/gnu_tools_for_arm/11.3_rel1/bin/../lib/gcc/arm-none-eabi/11.3.1/thumb/v7-m/nofp\libc_nano.a(libc_a-wbuf.o)
 .text.__swbuf  0x00000000       0x10 i:/mcu/gnu_tools_for_arm/11.3_rel1/bin/../lib/gcc/arm-none-eabi/11.3.1/thumb/v7-m/nofp\libc_nano.a(libc_a-wbuf.o)
 .text          0x00000000        0x0 i:/mcu/gnu_tools_for_arm/11.3_rel1/bin/../lib/gcc/arm-none-eabi/11.3.1/thumb/v7-m/nofp\libc_nano.a(libc_a-wsetup.o)
 .data          0x00000000        0x0 i:/mcu/gnu_tools_for_arm/11.3_rel1/bin/../lib/gcc/arm-none-eabi/11.3.1/thumb/v7-m/nofp\libc_nano.a(libc_a-wsetup.o)
 .bss           0x00000000        0x0 i:/mcu/gnu_tools_for_arm/11.3_rel1/bin/../lib/gcc/arm-none-eabi/11.3.1/thumb/v7-m/nofp\libc_nano.a(libc_a-wsetup.o)
 .text          0x00000000        0x0 i:/mcu/gnu_tools_for_arm/11.3_rel1/bin/../lib/gcc/arm-none-eabi/11.3.1/thumb/v7-m/nofp\libc_nano.a(libc_a-memset.o)
 .data          0x00000000        0x0 i:/mcu/gnu_tools_for_arm/11.3_rel1/bin/../lib/gcc/arm-none-eabi/11.3.1/thumb/v7-m/nofp\libc_nano.a(libc_a-memset.o)
 .bss           0x00000000        0x0 i:/mcu/gnu_tools_for_arm/11.3_rel1/bin/../lib/gcc/arm-none-eabi/11.3.1/thumb/v7-m/nofp\libc_nano.a(libc_a-memset.o)
 .text          0x00000000        0x0 i:/mcu/gnu_tools_for_arm/11.3_rel1/bin/../lib/gcc/arm-none-eabi/11.3.1/thumb/v7-m/nofp\libc_nano.a(libc_a-closer.o)
 .data          0x00000000        0x0 i:/mcu/gnu_tools_for_arm/11.3_rel1/bin/../lib/gcc/arm-none-eabi/11.3.1/thumb/v7-m/nofp\libc_nano.a(libc_a-closer.o)
 .bss           0x00000000        0x0 i:/mcu/gnu_tools_for_arm/11.3_rel1/bin/../lib/gcc/arm-none-eabi/11.3.1/thumb/v7-m/nofp\libc_nano.a(libc_a-closer.o)
 .text          0x00000000        0x0 i:/mcu/gnu_tools_for_arm/11.3_rel1/bin/../lib/gcc/arm-none-eabi/11.3.1/thumb/v7-m/nofp\libc_nano.a(libc_a-reent.o)
 .data          0x00000000        0x0 i:/mcu/gnu_tools_for_arm/11.3_rel1/bin/../lib/gcc/arm-none-eabi/11.3.1/thumb/v7-m/nofp\libc_nano.a(libc_a-reent.o)
 .bss           0x00000000        0x0 i:/mcu/gnu_tools_for_arm/11.3_rel1/bin/../lib/gcc/arm-none-eabi/11.3.1/thumb/v7-m/nofp\libc_nano.a(libc_a-reent.o)
 .text._reclaim_reent
                0x00000000       0xac i:/mcu/gnu_tools_for_arm/11.3_rel1/bin/../lib/gcc/arm-none-eabi/11.3.1/thumb/v7-m/nofp\libc_nano.a(libc_a-reent.o)
 .text          0x00000000        0x0 i:/mcu/gnu_tools_for_arm/11.3_rel1/bin/../lib/gcc/arm-none-eabi/11.3.1/thumb/v7-m/nofp\libc_nano.a(libc_a-impure.o)
 .data          0x00000000        0x0 i:/mcu/gnu_tools_for_arm/11.3_rel1/bin/../lib/gcc/arm-none-eabi/11.3.1/thumb/v7-m/nofp\libc_nano.a(libc_a-impure.o)
 .bss           0x00000000        0x0 i:/mcu/gnu_tools_for_arm/11.3_rel1/bin/../lib/gcc/arm-none-eabi/11.3.1/thumb/v7-m/nofp\libc_nano.a(libc_a-impure.o)
 .text          0x00000000        0x0 i:/mcu/gnu_tools_for_arm/11.3_rel1/bin/../lib/gcc/arm-none-eabi/11.3.1/thumb/v7-m/nofp\libc_nano.a(libc_a-lseekr.o)
 .data          0x00000000        0x0 i:/mcu/gnu_tools_for_arm/11.3_rel1/bin/../lib/gcc/arm-none-eabi/11.3.1/thumb/v7-m/nofp\libc_nano.a(libc_a-lseekr.o)
 .bss           0x00000000        0x0 i:/mcu/gnu_tools_for_arm/11.3_rel1/bin/../lib/gcc/arm-none-eabi/11.3.1/thumb/v7-m/nofp\libc_nano.a(libc_a-lseekr.o)
 .text          0x00000000        0x0 i:/mcu/gnu_tools_for_arm/11.3_rel1/bin/../lib/gcc/arm-none-eabi/11.3.1/thumb/v7-m/nofp\libc_nano.a(libc_a-readr.o)
 .data          0x00000000        0x0 i:/mcu/gnu_tools_for_arm/11.3_rel1/bin/../lib/gcc/arm-none-eabi/11.3.1/thumb/v7-m/nofp\libc_nano.a(libc_a-readr.o)
 .bss           0x00000000        0x0 i:/mcu/gnu_tools_for_arm/11.3_rel1/bin/../lib/gcc/arm-none-eabi/11.3.1/thumb/v7-m/nofp\libc_nano.a(libc_a-readr.o)
 .text          0x00000000        0x0 i:/mcu/gnu_tools_for_arm/11.3_rel1/bin/../lib/gcc/arm-none-eabi/11.3.1/thumb/v7-m/nofp\libc_nano.a(libc_a-writer.o)
 .data          0x00000000        0x0 i:/mcu/gnu_tools_for_arm/11.3_rel1/bin/../lib/gcc/arm-none-eabi/11.3.1/thumb/v7-m/nofp\libc_nano.a(libc_a-writer.o)
 .bss           0x00000000        0x0 i:/mcu/gnu_tools_for_arm/11.3_rel1/bin/../lib/gcc/arm-none-eabi/11.3.1/thumb/v7-m/nofp\libc_nano.a(libc_a-writer.o)
 .text          0x00000000        0x0 i:/mcu/gnu_tools_for_arm/11.3_rel1/bin/../lib/gcc/arm-none-eabi/11.3.1/thumb/v7-m/nofp\libc_nano.a(libc_a-errno.o)
 .data          0x00000000        0x0 i:/mcu/gnu_tools_for_arm/11.3_rel1/bin/../lib/gcc/arm-none-eabi/11.3.1/thumb/v7-m/nofp\libc_nano.a(libc_a-errno.o)
 .bss           0x00000000        0x0 i:/mcu/gnu_tools_for_arm/11.3_rel1/bin/../lib/gcc/arm-none-eabi/11.3.1/thumb/v7-m/nofp\libc_nano.a(libc_a-errno.o)
 .text          0x00000000        0x0 i:/mcu/gnu_tools_for_arm/11.3_rel1/bin/../lib/gcc/arm-none-eabi/11.3.1/thumb/v7-m/nofp\libc_nano.a(libc_a-init.o)
 .data          0x00000000        0x0 i:/mcu/gnu_tools_for_arm/11.3_rel1/bin/../lib/gcc/arm-none-eabi/11.3.1/thumb/v7-m/nofp\libc_nano.a(libc_a-init.o)
 .bss           0x00000000        0x0 i:/mcu/gnu_tools_for_arm/11.3_rel1/bin/../lib/gcc/arm-none-eabi/11.3.1/thumb/v7-m/nofp\libc_nano.a(libc_a-init.o)
 .text          0x00000000        0x0 i:/mcu/gnu_tools_for_arm/11.3_rel1/bin/../lib/gcc/arm-none-eabi/11.3.1/thumb/v7-m/nofp\libc_nano.a(libc_a-lock.o)
 .data          0x00000000        0x0 i:/mcu/gnu_tools_for_arm/11.3_rel1/bin/../lib/gcc/arm-none-eabi/11.3.1/thumb/v7-m/nofp\libc_nano.a(libc_a-lock.o)
 .bss           0x00000000        0x0 i:/mcu/gnu_tools_for_arm/11.3_rel1/bin/../lib/gcc/arm-none-eabi/11.3.1/thumb/v7-m/nofp\libc_nano.a(libc_a-lock.o)
 .text.__retarget_lock_init
                0x00000000        0x2 i:/mcu/gnu_tools_for_arm/11.3_rel1/bin/../lib/gcc/arm-none-eabi/11.3.1/thumb/v7-m/nofp\libc_nano.a(libc_a-lock.o)
 .text.__retarget_lock_init_recursive
                0x00000000        0x2 i:/mcu/gnu_tools_for_arm/11.3_rel1/bin/../lib/gcc/arm-none-eabi/11.3.1/thumb/v7-m/nofp\libc_nano.a(libc_a-lock.o)
 .text.__retarget_lock_close
                0x00000000        0x2 i:/mcu/gnu_tools_for_arm/11.3_rel1/bin/../lib/gcc/arm-none-eabi/11.3.1/thumb/v7-m/nofp\libc_nano.a(libc_a-lock.o)
 .text.__retarget_lock_close_recursive
                0x00000000        0x2 i:/mcu/gnu_tools_for_arm/11.3_rel1/bin/../lib/gcc/arm-none-eabi/11.3.1/thumb/v7-m/nofp\libc_nano.a(libc_a-lock.o)
 .text.__retarget_lock_acquire
                0x00000000        0x2 i:/mcu/gnu_tools_for_arm/11.3_rel1/bin/../lib/gcc/arm-none-eabi/11.3.1/thumb/v7-m/nofp\libc_nano.a(libc_a-lock.o)
 .text.__retarget_lock_try_acquire
                0x00000000        0x4 i:/mcu/gnu_tools_for_arm/11.3_rel1/bin/../lib/gcc/arm-none-eabi/11.3.1/thumb/v7-m/nofp\libc_nano.a(libc_a-lock.o)
 .text.__retarget_lock_try_acquire_recursive
                0x00000000        0x4 i:/mcu/gnu_tools_for_arm/11.3_rel1/bin/../lib/gcc/arm-none-eabi/11.3.1/thumb/v7-m/nofp\libc_nano.a(libc_a-lock.o)
 .text.__retarget_lock_release
                0x00000000        0x2 i:/mcu/gnu_tools_for_arm/11.3_rel1/bin/../lib/gcc/arm-none-eabi/11.3.1/thumb/v7-m/nofp\libc_nano.a(libc_a-lock.o)
 .bss.__lock___arc4random_mutex
                0x00000000        0x1 i:/mcu/gnu_tools_for_arm/11.3_rel1/bin/../lib/gcc/arm-none-eabi/11.3.1/thumb/v7-m/nofp\libc_nano.a(libc_a-lock.o)
 .bss.__lock___at_quick_exit_mutex
                0x00000000        0x1 i:/mcu/gnu_tools_for_arm/11.3_rel1/bin/../lib/gcc/arm-none-eabi/11.3.1/thumb/v7-m/nofp\libc_nano.a(libc_a-lock.o)
 .bss.__lock___atexit_recursive_mutex
                0x00000000        0x1 i:/mcu/gnu_tools_for_arm/11.3_rel1/bin/../lib/gcc/arm-none-eabi/11.3.1/thumb/v7-m/nofp\libc_nano.a(libc_a-lock.o)
 .bss.__lock___dd_hash_mutex
                0x00000000        0x1 i:/mcu/gnu_tools_for_arm/11.3_rel1/bin/../lib/gcc/arm-none-eabi/11.3.1/thumb/v7-m/nofp\libc_nano.a(libc_a-lock.o)
 .bss.__lock___env_recursive_mutex
                0x00000000        0x1 i:/mcu/gnu_tools_for_arm/11.3_rel1/bin/../lib/gcc/arm-none-eabi/11.3.1/thumb/v7-m/nofp\libc_nano.a(libc_a-lock.o)
 .bss.__lock___tz_mutex
                0x00000000        0x1 i:/mcu/gnu_tools_for_arm/11.3_rel1/bin/../lib/gcc/arm-none-eabi/11.3.1/thumb/v7-m/nofp\libc_nano.a(libc_a-lock.o)
 .text          0x00000000        0x0 i:/mcu/gnu_tools_for_arm/11.3_rel1/bin/../lib/gcc/arm-none-eabi/11.3.1/thumb/v7-m/nofp\libc_nano.a(libc_a-freer.o)
 .data          0x00000000        0x0 i:/mcu/gnu_tools_for_arm/11.3_rel1/bin/../lib/gcc/arm-none-eabi/11.3.1/thumb/v7-m/nofp\libc_nano.a(libc_a-freer.o)
 .bss           0x00000000        0x0 i:/mcu/gnu_tools_for_arm/11.3_rel1/bin/../lib/gcc/arm-none-eabi/11.3.1/thumb/v7-m/nofp\libc_nano.a(libc_a-freer.o)
 .text          0x00000000        0x0 i:/mcu/gnu_tools_for_arm/11.3_rel1/bin/../lib/gcc/arm-none-eabi/11.3.1/thumb/v7-m/nofp\libc_nano.a(libc_a-malloc.o)
 .data          0x00000000        0x0 i:/mcu/gnu_tools_for_arm/11.3_rel1/bin/../lib/gcc/arm-none-eabi/11.3.1/thumb/v7-m/nofp\libc_nano.a(libc_a-malloc.o)
 .bss           0x00000000        0x0 i:/mcu/gnu_tools_for_arm/11.3_rel1/bin/../lib/gcc/arm-none-eabi/11.3.1/thumb/v7-m/nofp\libc_nano.a(libc_a-malloc.o)
 .text.free     0x00000000       0x10 i:/mcu/gnu_tools_for_arm/11.3_rel1/bin/../lib/gcc/arm-none-eabi/11.3.1/thumb/v7-m/nofp\libc_nano.a(libc_a-malloc.o)
 .text          0x00000000        0x0 i:/mcu/gnu_tools_for_arm/11.3_rel1/bin/../lib/gcc/arm-none-eabi/11.3.1/thumb/v7-m/nofp\libc_nano.a(libc_a-mallocr.o)
 .data          0x00000000        0x0 i:/mcu/gnu_tools_for_arm/11.3_rel1/bin/../lib/gcc/arm-none-eabi/11.3.1/thumb/v7-m/nofp\libc_nano.a(libc_a-mallocr.o)
 .bss           0x00000000        0x0 i:/mcu/gnu_tools_for_arm/11.3_rel1/bin/../lib/gcc/arm-none-eabi/11.3.1/thumb/v7-m/nofp\libc_nano.a(libc_a-mallocr.o)
 .text          0x00000000        0x0 i:/mcu/gnu_tools_for_arm/11.3_rel1/bin/../lib/gcc/arm-none-eabi/11.3.1/thumb/v7-m/nofp\libc_nano.a(libc_a-mlock.o)
 .data          0x00000000        0x0 i:/mcu/gnu_tools_for_arm/11.3_rel1/bin/../lib/gcc/arm-none-eabi/11.3.1/thumb/v7-m/nofp\libc_nano.a(libc_a-mlock.o)
 .bss           0x00000000        0x0 i:/mcu/gnu_tools_for_arm/11.3_rel1/bin/../lib/gcc/arm-none-eabi/11.3.1/thumb/v7-m/nofp\libc_nano.a(libc_a-mlock.o)
 .text          0x00000000        0x0 i:/mcu/gnu_tools_for_arm/11.3_rel1/bin/../lib/gcc/arm-none-eabi/11.3.1/thumb/v7-m/nofp\libc_nano.a(libc_a-nano-vfprintf.o)
 .data          0x00000000        0x0 i:/mcu/gnu_tools_for_arm/11.3_rel1/bin/../lib/gcc/arm-none-eabi/11.3.1/thumb/v7-m/nofp\libc_nano.a(libc_a-nano-vfprintf.o)
 .bss           0x00000000        0x0 i:/mcu/gnu_tools_for_arm/11.3_rel1/bin/../lib/gcc/arm-none-eabi/11.3.1/thumb/v7-m/nofp\libc_nano.a(libc_a-nano-vfprintf.o)
 .text.__sprint_r
                0x00000000       0x1a i:/mcu/gnu_tools_for_arm/11.3_rel1/bin/../lib/gcc/arm-none-eabi/11.3.1/thumb/v7-m/nofp\libc_nano.a(libc_a-nano-vfprintf.o)
 .text.vfprintf
                0x00000000       0x14 i:/mcu/gnu_tools_for_arm/11.3_rel1/bin/../lib/gcc/arm-none-eabi/11.3.1/thumb/v7-m/nofp\libc_nano.a(libc_a-nano-vfprintf.o)
 .text          0x00000000        0x0 i:/mcu/gnu_tools_for_arm/11.3_rel1/bin/../lib/gcc/arm-none-eabi/11.3.1/thumb/v7-m/nofp\libc_nano.a(libc_a-nano-vfprintf_i.o)
 .data          0x00000000        0x0 i:/mcu/gnu_tools_for_arm/11.3_rel1/bin/../lib/gcc/arm-none-eabi/11.3.1/thumb/v7-m/nofp\libc_nano.a(libc_a-nano-vfprintf_i.o)
 .bss           0x00000000        0x0 i:/mcu/gnu_tools_for_arm/11.3_rel1/bin/../lib/gcc/arm-none-eabi/11.3.1/thumb/v7-m/nofp\libc_nano.a(libc_a-nano-vfprintf_i.o)
 .text          0x00000000        0x0 i:/mcu/gnu_tools_for_arm/11.3_rel1/bin/../lib/gcc/arm-none-eabi/11.3.1/thumb/v7-m/nofp\libc_nano.a(libc_a-fflush.o)
 .data          0x00000000        0x0 i:/mcu/gnu_tools_for_arm/11.3_rel1/bin/../lib/gcc/arm-none-eabi/11.3.1/thumb/v7-m/nofp\libc_nano.a(libc_a-fflush.o)
 .bss           0x00000000        0x0 i:/mcu/gnu_tools_for_arm/11.3_rel1/bin/../lib/gcc/arm-none-eabi/11.3.1/thumb/v7-m/nofp\libc_nano.a(libc_a-fflush.o)
 .text.fflush   0x00000000       0x28 i:/mcu/gnu_tools_for_arm/11.3_rel1/bin/../lib/gcc/arm-none-eabi/11.3.1/thumb/v7-m/nofp\libc_nano.a(libc_a-fflush.o)
 .text          0x00000000        0x0 i:/mcu/gnu_tools_for_arm/11.3_rel1/bin/../lib/gcc/arm-none-eabi/11.3.1/thumb/v7-m/nofp\libc_nano.a(libc_a-fvwrite.o)
 .data          0x00000000        0x0 i:/mcu/gnu_tools_for_arm/11.3_rel1/bin/../lib/gcc/arm-none-eabi/11.3.1/thumb/v7-m/nofp\libc_nano.a(libc_a-fvwrite.o)
 .bss           0x00000000        0x0 i:/mcu/gnu_tools_for_arm/11.3_rel1/bin/../lib/gcc/arm-none-eabi/11.3.1/thumb/v7-m/nofp\libc_nano.a(libc_a-fvwrite.o)
 .text.__sfvwrite_r
                0x00000000      0x294 i:/mcu/gnu_tools_for_arm/11.3_rel1/bin/../lib/gcc/arm-none-eabi/11.3.1/thumb/v7-m/nofp\libc_nano.a(libc_a-fvwrite.o)
 .debug_info    0x00000000      0xb39 i:/mcu/gnu_tools_for_arm/11.3_rel1/bin/../lib/gcc/arm-none-eabi/11.3.1/thumb/v7-m/nofp\libc_nano.a(libc_a-fvwrite.o)
 .debug_abbrev  0x00000000      0x21b i:/mcu/gnu_tools_for_arm/11.3_rel1/bin/../lib/gcc/arm-none-eabi/11.3.1/thumb/v7-m/nofp\libc_nano.a(libc_a-fvwrite.o)
 .debug_loclists
                0x00000000      0x420 i:/mcu/gnu_tools_for_arm/11.3_rel1/bin/../lib/gcc/arm-none-eabi/11.3.1/thumb/v7-m/nofp\libc_nano.a(libc_a-fvwrite.o)
 .debug_aranges
                0x00000000       0x20 i:/mcu/gnu_tools_for_arm/11.3_rel1/bin/../lib/gcc/arm-none-eabi/11.3.1/thumb/v7-m/nofp\libc_nano.a(libc_a-fvwrite.o)
 .debug_rnglists
                0x00000000       0x2e i:/mcu/gnu_tools_for_arm/11.3_rel1/bin/../lib/gcc/arm-none-eabi/11.3.1/thumb/v7-m/nofp\libc_nano.a(libc_a-fvwrite.o)
 .debug_line    0x00000000      0x612 i:/mcu/gnu_tools_for_arm/11.3_rel1/bin/../lib/gcc/arm-none-eabi/11.3.1/thumb/v7-m/nofp\libc_nano.a(libc_a-fvwrite.o)
 .debug_str     0x00000000      0x5c8 i:/mcu/gnu_tools_for_arm/11.3_rel1/bin/../lib/gcc/arm-none-eabi/11.3.1/thumb/v7-m/nofp\libc_nano.a(libc_a-fvwrite.o)
 .comment       0x00000000       0x34 i:/mcu/gnu_tools_for_arm/11.3_rel1/bin/../lib/gcc/arm-none-eabi/11.3.1/thumb/v7-m/nofp\libc_nano.a(libc_a-fvwrite.o)
 .debug_frame   0x00000000       0x3c i:/mcu/gnu_tools_for_arm/11.3_rel1/bin/../lib/gcc/arm-none-eabi/11.3.1/thumb/v7-m/nofp\libc_nano.a(libc_a-fvwrite.o)
 .ARM.attributes
                0x00000000       0x2d i:/mcu/gnu_tools_for_arm/11.3_rel1/bin/../lib/gcc/arm-none-eabi/11.3.1/thumb/v7-m/nofp\libc_nano.a(libc_a-fvwrite.o)
 .text          0x00000000        0x0 i:/mcu/gnu_tools_for_arm/11.3_rel1/bin/../lib/gcc/arm-none-eabi/11.3.1/thumb/v7-m/nofp\libc_nano.a(libc_a-makebuf.o)
 .data          0x00000000        0x0 i:/mcu/gnu_tools_for_arm/11.3_rel1/bin/../lib/gcc/arm-none-eabi/11.3.1/thumb/v7-m/nofp\libc_nano.a(libc_a-makebuf.o)
 .bss           0x00000000        0x0 i:/mcu/gnu_tools_for_arm/11.3_rel1/bin/../lib/gcc/arm-none-eabi/11.3.1/thumb/v7-m/nofp\libc_nano.a(libc_a-makebuf.o)
 .text          0x00000000        0x0 i:/mcu/gnu_tools_for_arm/11.3_rel1/bin/../lib/gcc/arm-none-eabi/11.3.1/thumb/v7-m/nofp\libc_nano.a(libc_a-memmove.o)
 .data          0x00000000        0x0 i:/mcu/gnu_tools_for_arm/11.3_rel1/bin/../lib/gcc/arm-none-eabi/11.3.1/thumb/v7-m/nofp\libc_nano.a(libc_a-memmove.o)
 .bss           0x00000000        0x0 i:/mcu/gnu_tools_for_arm/11.3_rel1/bin/../lib/gcc/arm-none-eabi/11.3.1/thumb/v7-m/nofp\libc_nano.a(libc_a-memmove.o)
 .text.memmove  0x00000000       0x34 i:/mcu/gnu_tools_for_arm/11.3_rel1/bin/../lib/gcc/arm-none-eabi/11.3.1/thumb/v7-m/nofp\libc_nano.a(libc_a-memmove.o)
 .debug_info    0x00000000      0x10f i:/mcu/gnu_tools_for_arm/11.3_rel1/bin/../lib/gcc/arm-none-eabi/11.3.1/thumb/v7-m/nofp\libc_nano.a(libc_a-memmove.o)
 .debug_abbrev  0x00000000       0xac i:/mcu/gnu_tools_for_arm/11.3_rel1/bin/../lib/gcc/arm-none-eabi/11.3.1/thumb/v7-m/nofp\libc_nano.a(libc_a-memmove.o)
 .debug_loclists
                0x00000000      0x119 i:/mcu/gnu_tools_for_arm/11.3_rel1/bin/../lib/gcc/arm-none-eabi/11.3.1/thumb/v7-m/nofp\libc_nano.a(libc_a-memmove.o)
 .debug_aranges
                0x00000000       0x20 i:/mcu/gnu_tools_for_arm/11.3_rel1/bin/../lib/gcc/arm-none-eabi/11.3.1/thumb/v7-m/nofp\libc_nano.a(libc_a-memmove.o)
 .debug_rnglists
                0x00000000       0x13 i:/mcu/gnu_tools_for_arm/11.3_rel1/bin/../lib/gcc/arm-none-eabi/11.3.1/thumb/v7-m/nofp\libc_nano.a(libc_a-memmove.o)
 .debug_line    0x00000000      0x1b3 i:/mcu/gnu_tools_for_arm/11.3_rel1/bin/../lib/gcc/arm-none-eabi/11.3.1/thumb/v7-m/nofp\libc_nano.a(libc_a-memmove.o)
 .debug_str     0x00000000      0x21f i:/mcu/gnu_tools_for_arm/11.3_rel1/bin/../lib/gcc/arm-none-eabi/11.3.1/thumb/v7-m/nofp\libc_nano.a(libc_a-memmove.o)
 .comment       0x00000000       0x34 i:/mcu/gnu_tools_for_arm/11.3_rel1/bin/../lib/gcc/arm-none-eabi/11.3.1/thumb/v7-m/nofp\libc_nano.a(libc_a-memmove.o)
 .debug_frame   0x00000000       0x28 i:/mcu/gnu_tools_for_arm/11.3_rel1/bin/../lib/gcc/arm-none-eabi/11.3.1/thumb/v7-m/nofp\libc_nano.a(libc_a-memmove.o)
 .ARM.attributes
                0x00000000       0x2d i:/mcu/gnu_tools_for_arm/11.3_rel1/bin/../lib/gcc/arm-none-eabi/11.3.1/thumb/v7-m/nofp\libc_nano.a(libc_a-memmove.o)
 .text          0x00000000        0x0 i:/mcu/gnu_tools_for_arm/11.3_rel1/bin/../lib/gcc/arm-none-eabi/11.3.1/thumb/v7-m/nofp\libc_nano.a(libc_a-fstatr.o)
 .data          0x00000000        0x0 i:/mcu/gnu_tools_for_arm/11.3_rel1/bin/../lib/gcc/arm-none-eabi/11.3.1/thumb/v7-m/nofp\libc_nano.a(libc_a-fstatr.o)
 .bss           0x00000000        0x0 i:/mcu/gnu_tools_for_arm/11.3_rel1/bin/../lib/gcc/arm-none-eabi/11.3.1/thumb/v7-m/nofp\libc_nano.a(libc_a-fstatr.o)
 .text          0x00000000        0x0 i:/mcu/gnu_tools_for_arm/11.3_rel1/bin/../lib/gcc/arm-none-eabi/11.3.1/thumb/v7-m/nofp\libc_nano.a(libc_a-isattyr.o)
 .data          0x00000000        0x0 i:/mcu/gnu_tools_for_arm/11.3_rel1/bin/../lib/gcc/arm-none-eabi/11.3.1/thumb/v7-m/nofp\libc_nano.a(libc_a-isattyr.o)
 .bss           0x00000000        0x0 i:/mcu/gnu_tools_for_arm/11.3_rel1/bin/../lib/gcc/arm-none-eabi/11.3.1/thumb/v7-m/nofp\libc_nano.a(libc_a-isattyr.o)
 .text          0x00000000        0x0 i:/mcu/gnu_tools_for_arm/11.3_rel1/bin/../lib/gcc/arm-none-eabi/11.3.1/thumb/v7-m/nofp\libc_nano.a(libc_a-sbrkr.o)
 .data          0x00000000        0x0 i:/mcu/gnu_tools_for_arm/11.3_rel1/bin/../lib/gcc/arm-none-eabi/11.3.1/thumb/v7-m/nofp\libc_nano.a(libc_a-sbrkr.o)
 .bss           0x00000000        0x0 i:/mcu/gnu_tools_for_arm/11.3_rel1/bin/../lib/gcc/arm-none-eabi/11.3.1/thumb/v7-m/nofp\libc_nano.a(libc_a-sbrkr.o)
 .text          0x00000000        0x0 i:/mcu/gnu_tools_for_arm/11.3_rel1/bin/../lib/gcc/arm-none-eabi/11.3.1/thumb/v7-m/nofp\libc_nano.a(libc_a-memchr-stub.o)
 .data          0x00000000        0x0 i:/mcu/gnu_tools_for_arm/11.3_rel1/bin/../lib/gcc/arm-none-eabi/11.3.1/thumb/v7-m/nofp\libc_nano.a(libc_a-memchr-stub.o)
 .bss           0x00000000        0x0 i:/mcu/gnu_tools_for_arm/11.3_rel1/bin/../lib/gcc/arm-none-eabi/11.3.1/thumb/v7-m/nofp\libc_nano.a(libc_a-memchr-stub.o)
 .text          0x00000000        0x0 i:/mcu/gnu_tools_for_arm/11.3_rel1/bin/../lib/gcc/arm-none-eabi/11.3.1/thumb/v7-m/nofp\libc_nano.a(libc_a-memcpy-stub.o)
 .data          0x00000000        0x0 i:/mcu/gnu_tools_for_arm/11.3_rel1/bin/../lib/gcc/arm-none-eabi/11.3.1/thumb/v7-m/nofp\libc_nano.a(libc_a-memcpy-stub.o)
 .bss           0x00000000        0x0 i:/mcu/gnu_tools_for_arm/11.3_rel1/bin/../lib/gcc/arm-none-eabi/11.3.1/thumb/v7-m/nofp\libc_nano.a(libc_a-memcpy-stub.o)
 .text.memcpy   0x00000000       0x1c i:/mcu/gnu_tools_for_arm/11.3_rel1/bin/../lib/gcc/arm-none-eabi/11.3.1/thumb/v7-m/nofp\libc_nano.a(libc_a-memcpy-stub.o)
 .debug_info    0x00000000      0x121 i:/mcu/gnu_tools_for_arm/11.3_rel1/bin/../lib/gcc/arm-none-eabi/11.3.1/thumb/v7-m/nofp\libc_nano.a(libc_a-memcpy-stub.o)
 .debug_abbrev  0x00000000       0xc1 i:/mcu/gnu_tools_for_arm/11.3_rel1/bin/../lib/gcc/arm-none-eabi/11.3.1/thumb/v7-m/nofp\libc_nano.a(libc_a-memcpy-stub.o)
 .debug_loclists
                0x00000000       0x8f i:/mcu/gnu_tools_for_arm/11.3_rel1/bin/../lib/gcc/arm-none-eabi/11.3.1/thumb/v7-m/nofp\libc_nano.a(libc_a-memcpy-stub.o)
 .debug_aranges
                0x00000000       0x20 i:/mcu/gnu_tools_for_arm/11.3_rel1/bin/../lib/gcc/arm-none-eabi/11.3.1/thumb/v7-m/nofp\libc_nano.a(libc_a-memcpy-stub.o)
 .debug_rnglists
                0x00000000       0x13 i:/mcu/gnu_tools_for_arm/11.3_rel1/bin/../lib/gcc/arm-none-eabi/11.3.1/thumb/v7-m/nofp\libc_nano.a(libc_a-memcpy-stub.o)
 .debug_line    0x00000000      0x196 i:/mcu/gnu_tools_for_arm/11.3_rel1/bin/../lib/gcc/arm-none-eabi/11.3.1/thumb/v7-m/nofp\libc_nano.a(libc_a-memcpy-stub.o)
 .debug_str     0x00000000      0x222 i:/mcu/gnu_tools_for_arm/11.3_rel1/bin/../lib/gcc/arm-none-eabi/11.3.1/thumb/v7-m/nofp\libc_nano.a(libc_a-memcpy-stub.o)
 .comment       0x00000000       0x34 i:/mcu/gnu_tools_for_arm/11.3_rel1/bin/../lib/gcc/arm-none-eabi/11.3.1/thumb/v7-m/nofp\libc_nano.a(libc_a-memcpy-stub.o)
 .debug_frame   0x00000000       0x28 i:/mcu/gnu_tools_for_arm/11.3_rel1/bin/../lib/gcc/arm-none-eabi/11.3.1/thumb/v7-m/nofp\libc_nano.a(libc_a-memcpy-stub.o)
 .ARM.attributes
                0x00000000       0x2d i:/mcu/gnu_tools_for_arm/11.3_rel1/bin/../lib/gcc/arm-none-eabi/11.3.1/thumb/v7-m/nofp\libc_nano.a(libc_a-memcpy-stub.o)
 .text          0x00000000        0x0 i:/mcu/gnu_tools_for_arm/11.3_rel1/bin/../lib/gcc/arm-none-eabi/11.3.1/thumb/v7-m/nofp\libc_nano.a(libc_a-reallocr.o)
 .data          0x00000000        0x0 i:/mcu/gnu_tools_for_arm/11.3_rel1/bin/../lib/gcc/arm-none-eabi/11.3.1/thumb/v7-m/nofp\libc_nano.a(libc_a-reallocr.o)
 .bss           0x00000000        0x0 i:/mcu/gnu_tools_for_arm/11.3_rel1/bin/../lib/gcc/arm-none-eabi/11.3.1/thumb/v7-m/nofp\libc_nano.a(libc_a-reallocr.o)
 .text._realloc_r
                0x00000000       0x5e i:/mcu/gnu_tools_for_arm/11.3_rel1/bin/../lib/gcc/arm-none-eabi/11.3.1/thumb/v7-m/nofp\libc_nano.a(libc_a-reallocr.o)
 .debug_info    0x00000000      0x8c6 i:/mcu/gnu_tools_for_arm/11.3_rel1/bin/../lib/gcc/arm-none-eabi/11.3.1/thumb/v7-m/nofp\libc_nano.a(libc_a-reallocr.o)
 .debug_abbrev  0x00000000      0x217 i:/mcu/gnu_tools_for_arm/11.3_rel1/bin/../lib/gcc/arm-none-eabi/11.3.1/thumb/v7-m/nofp\libc_nano.a(libc_a-reallocr.o)
 .debug_loclists
                0x00000000       0xf7 i:/mcu/gnu_tools_for_arm/11.3_rel1/bin/../lib/gcc/arm-none-eabi/11.3.1/thumb/v7-m/nofp\libc_nano.a(libc_a-reallocr.o)
 .debug_aranges
                0x00000000       0x20 i:/mcu/gnu_tools_for_arm/11.3_rel1/bin/../lib/gcc/arm-none-eabi/11.3.1/thumb/v7-m/nofp\libc_nano.a(libc_a-reallocr.o)
 .debug_rnglists
                0x00000000       0x13 i:/mcu/gnu_tools_for_arm/11.3_rel1/bin/../lib/gcc/arm-none-eabi/11.3.1/thumb/v7-m/nofp\libc_nano.a(libc_a-reallocr.o)
 .debug_line    0x00000000      0x262 i:/mcu/gnu_tools_for_arm/11.3_rel1/bin/../lib/gcc/arm-none-eabi/11.3.1/thumb/v7-m/nofp\libc_nano.a(libc_a-reallocr.o)
 .debug_str     0x00000000      0x59a i:/mcu/gnu_tools_for_arm/11.3_rel1/bin/../lib/gcc/arm-none-eabi/11.3.1/thumb/v7-m/nofp\libc_nano.a(libc_a-reallocr.o)
 .comment       0x00000000       0x34 i:/mcu/gnu_tools_for_arm/11.3_rel1/bin/../lib/gcc/arm-none-eabi/11.3.1/thumb/v7-m/nofp\libc_nano.a(libc_a-reallocr.o)
 .debug_frame   0x00000000       0x3c i:/mcu/gnu_tools_for_arm/11.3_rel1/bin/../lib/gcc/arm-none-eabi/11.3.1/thumb/v7-m/nofp\libc_nano.a(libc_a-reallocr.o)
 .ARM.attributes
                0x00000000       0x2d i:/mcu/gnu_tools_for_arm/11.3_rel1/bin/../lib/gcc/arm-none-eabi/11.3.1/thumb/v7-m/nofp\libc_nano.a(libc_a-reallocr.o)
 .text          0x00000000        0x0 i:/mcu/gnu_tools_for_arm/11.3_rel1/bin/../lib/gcc/arm-none-eabi/11.3.1/thumb/v7-m/nofp\libc_nano.a(libc_a-msizer.o)
 .data          0x00000000        0x0 i:/mcu/gnu_tools_for_arm/11.3_rel1/bin/../lib/gcc/arm-none-eabi/11.3.1/thumb/v7-m/nofp\libc_nano.a(libc_a-msizer.o)
 .bss           0x00000000        0x0 i:/mcu/gnu_tools_for_arm/11.3_rel1/bin/../lib/gcc/arm-none-eabi/11.3.1/thumb/v7-m/nofp\libc_nano.a(libc_a-msizer.o)
 .text._malloc_usable_size_r
                0x00000000       0x10 i:/mcu/gnu_tools_for_arm/11.3_rel1/bin/../lib/gcc/arm-none-eabi/11.3.1/thumb/v7-m/nofp\libc_nano.a(libc_a-msizer.o)
 .debug_info    0x00000000      0x793 i:/mcu/gnu_tools_for_arm/11.3_rel1/bin/../lib/gcc/arm-none-eabi/11.3.1/thumb/v7-m/nofp\libc_nano.a(libc_a-msizer.o)
 .debug_abbrev  0x00000000      0x196 i:/mcu/gnu_tools_for_arm/11.3_rel1/bin/../lib/gcc/arm-none-eabi/11.3.1/thumb/v7-m/nofp\libc_nano.a(libc_a-msizer.o)
 .debug_loclists
                0x00000000       0x62 i:/mcu/gnu_tools_for_arm/11.3_rel1/bin/../lib/gcc/arm-none-eabi/11.3.1/thumb/v7-m/nofp\libc_nano.a(libc_a-msizer.o)
 .debug_aranges
                0x00000000       0x20 i:/mcu/gnu_tools_for_arm/11.3_rel1/bin/../lib/gcc/arm-none-eabi/11.3.1/thumb/v7-m/nofp\libc_nano.a(libc_a-msizer.o)
 .debug_rnglists
                0x00000000       0x13 i:/mcu/gnu_tools_for_arm/11.3_rel1/bin/../lib/gcc/arm-none-eabi/11.3.1/thumb/v7-m/nofp\libc_nano.a(libc_a-msizer.o)
 .debug_line    0x00000000      0x1f0 i:/mcu/gnu_tools_for_arm/11.3_rel1/bin/../lib/gcc/arm-none-eabi/11.3.1/thumb/v7-m/nofp\libc_nano.a(libc_a-msizer.o)
 .debug_str     0x00000000      0x56d i:/mcu/gnu_tools_for_arm/11.3_rel1/bin/../lib/gcc/arm-none-eabi/11.3.1/thumb/v7-m/nofp\libc_nano.a(libc_a-msizer.o)
 .comment       0x00000000       0x34 i:/mcu/gnu_tools_for_arm/11.3_rel1/bin/../lib/gcc/arm-none-eabi/11.3.1/thumb/v7-m/nofp\libc_nano.a(libc_a-msizer.o)
 .debug_frame   0x00000000       0x20 i:/mcu/gnu_tools_for_arm/11.3_rel1/bin/../lib/gcc/arm-none-eabi/11.3.1/thumb/v7-m/nofp\libc_nano.a(libc_a-msizer.o)
 .ARM.attributes
                0x00000000       0x2d i:/mcu/gnu_tools_for_arm/11.3_rel1/bin/../lib/gcc/arm-none-eabi/11.3.1/thumb/v7-m/nofp\libc_nano.a(libc_a-msizer.o)
 .text          0x00000000        0x0 i:/mcu/gnu_tools_for_arm/11.3_rel1/bin/../lib/gcc/arm-none-eabi/11.3.1/thumb/v7-m/nofp\libm.a(libm_a-w_pow.o)
 .data          0x00000000        0x0 i:/mcu/gnu_tools_for_arm/11.3_rel1/bin/../lib/gcc/arm-none-eabi/11.3.1/thumb/v7-m/nofp\libm.a(libm_a-w_pow.o)
 .bss           0x00000000        0x0 i:/mcu/gnu_tools_for_arm/11.3_rel1/bin/../lib/gcc/arm-none-eabi/11.3.1/thumb/v7-m/nofp\libm.a(libm_a-w_pow.o)
 .text          0x00000000        0x0 i:/mcu/gnu_tools_for_arm/11.3_rel1/bin/../lib/gcc/arm-none-eabi/11.3.1/thumb/v7-m/nofp\libm.a(libm_a-w_sqrt.o)
 .data          0x00000000        0x0 i:/mcu/gnu_tools_for_arm/11.3_rel1/bin/../lib/gcc/arm-none-eabi/11.3.1/thumb/v7-m/nofp\libm.a(libm_a-w_sqrt.o)
 .bss           0x00000000        0x0 i:/mcu/gnu_tools_for_arm/11.3_rel1/bin/../lib/gcc/arm-none-eabi/11.3.1/thumb/v7-m/nofp\libm.a(libm_a-w_sqrt.o)
 .text          0x00000000        0x0 i:/mcu/gnu_tools_for_arm/11.3_rel1/bin/../lib/gcc/arm-none-eabi/11.3.1/thumb/v7-m/nofp\libm.a(libm_a-s_finite.o)
 .data          0x00000000        0x0 i:/mcu/gnu_tools_for_arm/11.3_rel1/bin/../lib/gcc/arm-none-eabi/11.3.1/thumb/v7-m/nofp\libm.a(libm_a-s_finite.o)
 .bss           0x00000000        0x0 i:/mcu/gnu_tools_for_arm/11.3_rel1/bin/../lib/gcc/arm-none-eabi/11.3.1/thumb/v7-m/nofp\libm.a(libm_a-s_finite.o)
 .text          0x00000000        0x0 i:/mcu/gnu_tools_for_arm/11.3_rel1/bin/../lib/gcc/arm-none-eabi/11.3.1/thumb/v7-m/nofp\libm.a(libm_a-e_sqrt.o)
 .data          0x00000000        0x0 i:/mcu/gnu_tools_for_arm/11.3_rel1/bin/../lib/gcc/arm-none-eabi/11.3.1/thumb/v7-m/nofp\libm.a(libm_a-e_sqrt.o)
 .bss           0x00000000        0x0 i:/mcu/gnu_tools_for_arm/11.3_rel1/bin/../lib/gcc/arm-none-eabi/11.3.1/thumb/v7-m/nofp\libm.a(libm_a-e_sqrt.o)
 .text          0x00000000        0x0 i:/mcu/gnu_tools_for_arm/11.3_rel1/bin/../lib/gcc/arm-none-eabi/11.3.1/thumb/v7-m/nofp\libm.a(libm_a-e_pow.o)
 .data          0x00000000        0x0 i:/mcu/gnu_tools_for_arm/11.3_rel1/bin/../lib/gcc/arm-none-eabi/11.3.1/thumb/v7-m/nofp\libm.a(libm_a-e_pow.o)
 .bss           0x00000000        0x0 i:/mcu/gnu_tools_for_arm/11.3_rel1/bin/../lib/gcc/arm-none-eabi/11.3.1/thumb/v7-m/nofp\libm.a(libm_a-e_pow.o)
 .text          0x00000000        0x0 i:/mcu/gnu_tools_for_arm/11.3_rel1/bin/../lib/gcc/arm-none-eabi/11.3.1/thumb/v7-m/nofp\libm.a(libm_a-s_fabs.o)
 .data          0x00000000        0x0 i:/mcu/gnu_tools_for_arm/11.3_rel1/bin/../lib/gcc/arm-none-eabi/11.3.1/thumb/v7-m/nofp\libm.a(libm_a-s_fabs.o)
 .bss           0x00000000        0x0 i:/mcu/gnu_tools_for_arm/11.3_rel1/bin/../lib/gcc/arm-none-eabi/11.3.1/thumb/v7-m/nofp\libm.a(libm_a-s_fabs.o)
 .text          0x00000000        0x0 i:/mcu/gnu_tools_for_arm/11.3_rel1/bin/../lib/gcc/arm-none-eabi/11.3.1/thumb/v7-m/nofp\libm.a(libm_a-s_scalbn.o)
 .data          0x00000000        0x0 i:/mcu/gnu_tools_for_arm/11.3_rel1/bin/../lib/gcc/arm-none-eabi/11.3.1/thumb/v7-m/nofp\libm.a(libm_a-s_scalbn.o)
 .bss           0x00000000        0x0 i:/mcu/gnu_tools_for_arm/11.3_rel1/bin/../lib/gcc/arm-none-eabi/11.3.1/thumb/v7-m/nofp\libm.a(libm_a-s_scalbn.o)
 .text          0x00000000        0x0 i:/mcu/gnu_tools_for_arm/11.3_rel1/bin/../lib/gcc/arm-none-eabi/11.3.1/thumb/v7-m/nofp\libm.a(libm_a-math_err.o)
 .data          0x00000000        0x0 i:/mcu/gnu_tools_for_arm/11.3_rel1/bin/../lib/gcc/arm-none-eabi/11.3.1/thumb/v7-m/nofp\libm.a(libm_a-math_err.o)
 .bss           0x00000000        0x0 i:/mcu/gnu_tools_for_arm/11.3_rel1/bin/../lib/gcc/arm-none-eabi/11.3.1/thumb/v7-m/nofp\libm.a(libm_a-math_err.o)
 .text.__math_may_uflow
                0x00000000        0xc i:/mcu/gnu_tools_for_arm/11.3_rel1/bin/../lib/gcc/arm-none-eabi/11.3.1/thumb/v7-m/nofp\libm.a(libm_a-math_err.o)
 .text.__math_divzero
                0x00000000       0x34 i:/mcu/gnu_tools_for_arm/11.3_rel1/bin/../lib/gcc/arm-none-eabi/11.3.1/thumb/v7-m/nofp\libm.a(libm_a-math_err.o)
 .text.__math_invalid
                0x00000000       0x3c i:/mcu/gnu_tools_for_arm/11.3_rel1/bin/../lib/gcc/arm-none-eabi/11.3.1/thumb/v7-m/nofp\libm.a(libm_a-math_err.o)
 .text.__math_check_uflow
                0x00000000       0x24 i:/mcu/gnu_tools_for_arm/11.3_rel1/bin/../lib/gcc/arm-none-eabi/11.3.1/thumb/v7-m/nofp\libm.a(libm_a-math_err.o)
 .text.__math_check_oflow
                0x00000000       0x44 i:/mcu/gnu_tools_for_arm/11.3_rel1/bin/../lib/gcc/arm-none-eabi/11.3.1/thumb/v7-m/nofp\libm.a(libm_a-math_err.o)
 .text          0x00000000        0x0 i:/mcu/gnu_tools_for_arm/11.3_rel1/bin/../lib/gcc/arm-none-eabi/11.3.1/thumb/v7-m/nofp\libnosys.a(sbrk.o)
 .data          0x00000000        0x0 i:/mcu/gnu_tools_for_arm/11.3_rel1/bin/../lib/gcc/arm-none-eabi/11.3.1/thumb/v7-m/nofp\libnosys.a(sbrk.o)
 .bss           0x00000000        0x0 i:/mcu/gnu_tools_for_arm/11.3_rel1/bin/../lib/gcc/arm-none-eabi/11.3.1/thumb/v7-m/nofp\libnosys.a(sbrk.o)
 .text          0x00000000        0x0 i:/mcu/gnu_tools_for_arm/11.3_rel1/bin/../lib/gcc/arm-none-eabi/11.3.1/thumb/v7-m/nofp\libnosys.a(_exit.o)
 .data          0x00000000        0x0 i:/mcu/gnu_tools_for_arm/11.3_rel1/bin/../lib/gcc/arm-none-eabi/11.3.1/thumb/v7-m/nofp\libnosys.a(_exit.o)
 .bss           0x00000000        0x0 i:/mcu/gnu_tools_for_arm/11.3_rel1/bin/../lib/gcc/arm-none-eabi/11.3.1/thumb/v7-m/nofp\libnosys.a(_exit.o)
 .text._exit    0x00000000        0x4 i:/mcu/gnu_tools_for_arm/11.3_rel1/bin/../lib/gcc/arm-none-eabi/11.3.1/thumb/v7-m/nofp\libnosys.a(_exit.o)
 .debug_info    0x00000000       0x62 i:/mcu/gnu_tools_for_arm/11.3_rel1/bin/../lib/gcc/arm-none-eabi/11.3.1/thumb/v7-m/nofp\libnosys.a(_exit.o)
 .debug_abbrev  0x00000000       0x60 i:/mcu/gnu_tools_for_arm/11.3_rel1/bin/../lib/gcc/arm-none-eabi/11.3.1/thumb/v7-m/nofp\libnosys.a(_exit.o)
 .debug_loclists
                0x00000000       0x17 i:/mcu/gnu_tools_for_arm/11.3_rel1/bin/../lib/gcc/arm-none-eabi/11.3.1/thumb/v7-m/nofp\libnosys.a(_exit.o)
 .debug_aranges
                0x00000000       0x20 i:/mcu/gnu_tools_for_arm/11.3_rel1/bin/../lib/gcc/arm-none-eabi/11.3.1/thumb/v7-m/nofp\libnosys.a(_exit.o)
 .debug_rnglists
                0x00000000       0x13 i:/mcu/gnu_tools_for_arm/11.3_rel1/bin/../lib/gcc/arm-none-eabi/11.3.1/thumb/v7-m/nofp\libnosys.a(_exit.o)
 .debug_line    0x00000000       0x96 i:/mcu/gnu_tools_for_arm/11.3_rel1/bin/../lib/gcc/arm-none-eabi/11.3.1/thumb/v7-m/nofp\libnosys.a(_exit.o)
 .debug_str     0x00000000      0x144 i:/mcu/gnu_tools_for_arm/11.3_rel1/bin/../lib/gcc/arm-none-eabi/11.3.1/thumb/v7-m/nofp\libnosys.a(_exit.o)
 .comment       0x00000000       0x34 i:/mcu/gnu_tools_for_arm/11.3_rel1/bin/../lib/gcc/arm-none-eabi/11.3.1/thumb/v7-m/nofp\libnosys.a(_exit.o)
 .debug_frame   0x00000000       0x20 i:/mcu/gnu_tools_for_arm/11.3_rel1/bin/../lib/gcc/arm-none-eabi/11.3.1/thumb/v7-m/nofp\libnosys.a(_exit.o)
 .ARM.attributes
                0x00000000       0x2d i:/mcu/gnu_tools_for_arm/11.3_rel1/bin/../lib/gcc/arm-none-eabi/11.3.1/thumb/v7-m/nofp\libnosys.a(_exit.o)
 .text          0x00000000      0x254 i:/mcu/gnu_tools_for_arm/11.3_rel1/bin/../lib/gcc/arm-none-eabi/11.3.1/thumb/v7-m/nofp\libgcc.a(_arm_muldf3.o)
 .data          0x00000000        0x0 i:/mcu/gnu_tools_for_arm/11.3_rel1/bin/../lib/gcc/arm-none-eabi/11.3.1/thumb/v7-m/nofp\libgcc.a(_arm_muldf3.o)
 .bss           0x00000000        0x0 i:/mcu/gnu_tools_for_arm/11.3_rel1/bin/../lib/gcc/arm-none-eabi/11.3.1/thumb/v7-m/nofp\libgcc.a(_arm_muldf3.o)
 .debug_line    0x00000000       0xf5 i:/mcu/gnu_tools_for_arm/11.3_rel1/bin/../lib/gcc/arm-none-eabi/11.3.1/thumb/v7-m/nofp\libgcc.a(_arm_muldf3.o)
 .debug_line_str
                0x00000000       0xd7 i:/mcu/gnu_tools_for_arm/11.3_rel1/bin/../lib/gcc/arm-none-eabi/11.3.1/thumb/v7-m/nofp\libgcc.a(_arm_muldf3.o)
 .debug_info    0x00000000       0x25 i:/mcu/gnu_tools_for_arm/11.3_rel1/bin/../lib/gcc/arm-none-eabi/11.3.1/thumb/v7-m/nofp\libgcc.a(_arm_muldf3.o)
 .debug_abbrev  0x00000000       0x14 i:/mcu/gnu_tools_for_arm/11.3_rel1/bin/../lib/gcc/arm-none-eabi/11.3.1/thumb/v7-m/nofp\libgcc.a(_arm_muldf3.o)
 .debug_aranges
                0x00000000       0x20 i:/mcu/gnu_tools_for_arm/11.3_rel1/bin/../lib/gcc/arm-none-eabi/11.3.1/thumb/v7-m/nofp\libgcc.a(_arm_muldf3.o)
 .debug_str     0x00000000       0xd6 i:/mcu/gnu_tools_for_arm/11.3_rel1/bin/../lib/gcc/arm-none-eabi/11.3.1/thumb/v7-m/nofp\libgcc.a(_arm_muldf3.o)
 .debug_frame   0x00000000       0x30 i:/mcu/gnu_tools_for_arm/11.3_rel1/bin/../lib/gcc/arm-none-eabi/11.3.1/thumb/v7-m/nofp\libgcc.a(_arm_muldf3.o)
 .ARM.attributes
                0x00000000       0x1d i:/mcu/gnu_tools_for_arm/11.3_rel1/bin/../lib/gcc/arm-none-eabi/11.3.1/thumb/v7-m/nofp\libgcc.a(_arm_muldf3.o)
 .text          0x00000000      0x168 i:/mcu/gnu_tools_for_arm/11.3_rel1/bin/../lib/gcc/arm-none-eabi/11.3.1/thumb/v7-m/nofp\libgcc.a(_arm_mulsf3.o)
 .data          0x00000000        0x0 i:/mcu/gnu_tools_for_arm/11.3_rel1/bin/../lib/gcc/arm-none-eabi/11.3.1/thumb/v7-m/nofp\libgcc.a(_arm_mulsf3.o)
 .bss           0x00000000        0x0 i:/mcu/gnu_tools_for_arm/11.3_rel1/bin/../lib/gcc/arm-none-eabi/11.3.1/thumb/v7-m/nofp\libgcc.a(_arm_mulsf3.o)
 .debug_line    0x00000000       0xbd i:/mcu/gnu_tools_for_arm/11.3_rel1/bin/../lib/gcc/arm-none-eabi/11.3.1/thumb/v7-m/nofp\libgcc.a(_arm_mulsf3.o)
 .debug_line_str
                0x00000000       0xd7 i:/mcu/gnu_tools_for_arm/11.3_rel1/bin/../lib/gcc/arm-none-eabi/11.3.1/thumb/v7-m/nofp\libgcc.a(_arm_mulsf3.o)
 .debug_info    0x00000000       0x25 i:/mcu/gnu_tools_for_arm/11.3_rel1/bin/../lib/gcc/arm-none-eabi/11.3.1/thumb/v7-m/nofp\libgcc.a(_arm_mulsf3.o)
 .debug_abbrev  0x00000000       0x14 i:/mcu/gnu_tools_for_arm/11.3_rel1/bin/../lib/gcc/arm-none-eabi/11.3.1/thumb/v7-m/nofp\libgcc.a(_arm_mulsf3.o)
 .debug_aranges
                0x00000000       0x20 i:/mcu/gnu_tools_for_arm/11.3_rel1/bin/../lib/gcc/arm-none-eabi/11.3.1/thumb/v7-m/nofp\libgcc.a(_arm_mulsf3.o)
 .debug_str     0x00000000       0xd6 i:/mcu/gnu_tools_for_arm/11.3_rel1/bin/../lib/gcc/arm-none-eabi/11.3.1/thumb/v7-m/nofp\libgcc.a(_arm_mulsf3.o)
 .debug_frame   0x00000000       0x24 i:/mcu/gnu_tools_for_arm/11.3_rel1/bin/../lib/gcc/arm-none-eabi/11.3.1/thumb/v7-m/nofp\libgcc.a(_arm_mulsf3.o)
 .ARM.attributes
                0x00000000       0x1d i:/mcu/gnu_tools_for_arm/11.3_rel1/bin/../lib/gcc/arm-none-eabi/11.3.1/thumb/v7-m/nofp\libgcc.a(_arm_mulsf3.o)
 .data          0x00000000        0x0 i:/mcu/gnu_tools_for_arm/11.3_rel1/bin/../lib/gcc/arm-none-eabi/11.3.1/thumb/v7-m/nofp\libgcc.a(_arm_addsubdf3.o)
 .bss           0x00000000        0x0 i:/mcu/gnu_tools_for_arm/11.3_rel1/bin/../lib/gcc/arm-none-eabi/11.3.1/thumb/v7-m/nofp\libgcc.a(_arm_addsubdf3.o)
 .data          0x00000000        0x0 i:/mcu/gnu_tools_for_arm/11.3_rel1/bin/../lib/gcc/arm-none-eabi/11.3.1/thumb/v7-m/nofp\libgcc.a(_arm_muldivdf3.o)
 .bss           0x00000000        0x0 i:/mcu/gnu_tools_for_arm/11.3_rel1/bin/../lib/gcc/arm-none-eabi/11.3.1/thumb/v7-m/nofp\libgcc.a(_arm_muldivdf3.o)
 .data          0x00000000        0x0 i:/mcu/gnu_tools_for_arm/11.3_rel1/bin/../lib/gcc/arm-none-eabi/11.3.1/thumb/v7-m/nofp\libgcc.a(_arm_cmpdf2.o)
 .bss           0x00000000        0x0 i:/mcu/gnu_tools_for_arm/11.3_rel1/bin/../lib/gcc/arm-none-eabi/11.3.1/thumb/v7-m/nofp\libgcc.a(_arm_cmpdf2.o)
 .data          0x00000000        0x0 i:/mcu/gnu_tools_for_arm/11.3_rel1/bin/../lib/gcc/arm-none-eabi/11.3.1/thumb/v7-m/nofp\libgcc.a(_arm_unorddf2.o)
 .bss           0x00000000        0x0 i:/mcu/gnu_tools_for_arm/11.3_rel1/bin/../lib/gcc/arm-none-eabi/11.3.1/thumb/v7-m/nofp\libgcc.a(_arm_unorddf2.o)
 .data          0x00000000        0x0 i:/mcu/gnu_tools_for_arm/11.3_rel1/bin/../lib/gcc/arm-none-eabi/11.3.1/thumb/v7-m/nofp\libgcc.a(_arm_truncdfsf2.o)
 .bss           0x00000000        0x0 i:/mcu/gnu_tools_for_arm/11.3_rel1/bin/../lib/gcc/arm-none-eabi/11.3.1/thumb/v7-m/nofp\libgcc.a(_arm_truncdfsf2.o)
 .data          0x00000000        0x0 i:/mcu/gnu_tools_for_arm/11.3_rel1/bin/../lib/gcc/arm-none-eabi/11.3.1/thumb/v7-m/nofp\libgcc.a(_arm_addsubsf3.o)
 .bss           0x00000000        0x0 i:/mcu/gnu_tools_for_arm/11.3_rel1/bin/../lib/gcc/arm-none-eabi/11.3.1/thumb/v7-m/nofp\libgcc.a(_arm_addsubsf3.o)
 .data          0x00000000        0x0 i:/mcu/gnu_tools_for_arm/11.3_rel1/bin/../lib/gcc/arm-none-eabi/11.3.1/thumb/v7-m/nofp\libgcc.a(_arm_muldivsf3.o)
 .bss           0x00000000        0x0 i:/mcu/gnu_tools_for_arm/11.3_rel1/bin/../lib/gcc/arm-none-eabi/11.3.1/thumb/v7-m/nofp\libgcc.a(_arm_muldivsf3.o)
 .data          0x00000000        0x0 i:/mcu/gnu_tools_for_arm/11.3_rel1/bin/../lib/gcc/arm-none-eabi/11.3.1/thumb/v7-m/nofp\libgcc.a(_arm_cmpsf2.o)
 .bss           0x00000000        0x0 i:/mcu/gnu_tools_for_arm/11.3_rel1/bin/../lib/gcc/arm-none-eabi/11.3.1/thumb/v7-m/nofp\libgcc.a(_arm_cmpsf2.o)
 .data          0x00000000        0x0 i:/mcu/gnu_tools_for_arm/11.3_rel1/bin/../lib/gcc/arm-none-eabi/11.3.1/thumb/v7-m/nofp\libgcc.a(_arm_fixunssfsi.o)
 .bss           0x00000000        0x0 i:/mcu/gnu_tools_for_arm/11.3_rel1/bin/../lib/gcc/arm-none-eabi/11.3.1/thumb/v7-m/nofp\libgcc.a(_arm_fixunssfsi.o)
 .text          0x00000000        0x0 i:/mcu/gnu_tools_for_arm/11.3_rel1/bin/../lib/gcc/arm-none-eabi/11.3.1/thumb/v7-m/nofp/crtend.o
 .data          0x00000000        0x0 i:/mcu/gnu_tools_for_arm/11.3_rel1/bin/../lib/gcc/arm-none-eabi/11.3.1/thumb/v7-m/nofp/crtend.o
 .bss           0x00000000        0x0 i:/mcu/gnu_tools_for_arm/11.3_rel1/bin/../lib/gcc/arm-none-eabi/11.3.1/thumb/v7-m/nofp/crtend.o
 .rodata.all_implied_fbits
                0x00000000       0x24 i:/mcu/gnu_tools_for_arm/11.3_rel1/bin/../lib/gcc/arm-none-eabi/11.3.1/thumb/v7-m/nofp/crtend.o
 .eh_frame      0x00000000        0x4 i:/mcu/gnu_tools_for_arm/11.3_rel1/bin/../lib/gcc/arm-none-eabi/11.3.1/thumb/v7-m/nofp/crtend.o
 .text          0x00000000        0x0 i:/mcu/gnu_tools_for_arm/11.3_rel1/bin/../lib/gcc/arm-none-eabi/11.3.1/thumb/v7-m/nofp/crtn.o
 .data          0x00000000        0x0 i:/mcu/gnu_tools_for_arm/11.3_rel1/bin/../lib/gcc/arm-none-eabi/11.3.1/thumb/v7-m/nofp/crtn.o
 .bss           0x00000000        0x0 i:/mcu/gnu_tools_for_arm/11.3_rel1/bin/../lib/gcc/arm-none-eabi/11.3.1/thumb/v7-m/nofp/crtn.o

Memory Configuration

Name             Origin             Length             Attributes
RAM              0x20000000         0x00010000         xrw
FLASH            0x08000000         0x00080000         xr
*default*        0x00000000         0xffffffff

Linker script and memory map

LOAD i:/mcu/gnu_tools_for_arm/11.3_rel1/bin/../lib/gcc/arm-none-eabi/11.3.1/thumb/v7-m/nofp/crti.o
LOAD i:/mcu/gnu_tools_for_arm/11.3_rel1/bin/../lib/gcc/arm-none-eabi/11.3.1/thumb/v7-m/nofp/crtbegin.o
LOAD i:/mcu/gnu_tools_for_arm/11.3_rel1/bin/../lib/gcc/arm-none-eabi/11.3.1/thumb/v7-m/nofp/crt0.o
LOAD build/main.o
LOAD build/gpio.o
LOAD build/i2c.o
LOAD build/usart.o
LOAD build/stm32f1xx_it.o
LOAD build/stm32f1xx_hal_msp.o
LOAD build/stm32f1xx_hal_gpio_ex.o
LOAD build/stm32f1xx_hal_i2c.o
LOAD build/stm32f1xx_hal.o
LOAD build/stm32f1xx_hal_rcc.o
LOAD build/stm32f1xx_hal_rcc_ex.o
LOAD build/stm32f1xx_hal_gpio.o
LOAD build/stm32f1xx_hal_dma.o
LOAD build/stm32f1xx_hal_cortex.o
LOAD build/stm32f1xx_hal_pwr.o
LOAD build/stm32f1xx_hal_flash.o
LOAD build/stm32f1xx_hal_flash_ex.o
LOAD build/stm32f1xx_hal_exti.o
LOAD build/stm32f1xx_hal_tim.o
LOAD build/stm32f1xx_hal_tim_ex.o
LOAD build/stm32f1xx_hal_uart.o
LOAD build/system_stm32f1xx.o
LOAD build/Waveshare_AS7341.o
LOAD build/DEV_Config.o
LOAD build/ColorTemperature.o
LOAD build/clear.o
LOAD build/Getdata_test.o
LOAD build/Getflicker_test.o
LOAD build/INT_test.o
LOAD build/pinINT_test.o
LOAD build/Syns_test.o
LOAD build/Ra_calculate.o
LOAD build/retarget.o
LOAD build/startup_stm32f103xe.o
LOAD i:/mcu/gnu_tools_for_arm/11.3_rel1/bin/../lib/gcc/arm-none-eabi/11.3.1/thumb/v7-m/nofp\libc_nano.a
LOAD i:/mcu/gnu_tools_for_arm/11.3_rel1/bin/../lib/gcc/arm-none-eabi/11.3.1/thumb/v7-m/nofp\libm.a
LOAD i:/mcu/gnu_tools_for_arm/11.3_rel1/bin/../lib/gcc/arm-none-eabi/11.3.1/thumb/v7-m/nofp\libnosys.a
START GROUP
LOAD i:/mcu/gnu_tools_for_arm/11.3_rel1/bin/../lib/gcc/arm-none-eabi/11.3.1/thumb/v7-m/nofp\libgcc.a
LOAD i:/mcu/gnu_tools_for_arm/11.3_rel1/bin/../lib/gcc/arm-none-eabi/11.3.1/thumb/v7-m/nofp\libc_nano.a
END GROUP
START GROUP
LOAD i:/mcu/gnu_tools_for_arm/11.3_rel1/bin/../lib/gcc/arm-none-eabi/11.3.1/thumb/v7-m/nofp\libgcc.a
LOAD i:/mcu/gnu_tools_for_arm/11.3_rel1/bin/../lib/gcc/arm-none-eabi/11.3.1/thumb/v7-m/nofp\libc_nano.a
END GROUP
LOAD i:/mcu/gnu_tools_for_arm/11.3_rel1/bin/../lib/gcc/arm-none-eabi/11.3.1/thumb/v7-m/nofp/crtend.o
LOAD i:/mcu/gnu_tools_for_arm/11.3_rel1/bin/../lib/gcc/arm-none-eabi/11.3.1/thumb/v7-m/nofp/crtn.o
                0x20010000                _estack = (ORIGIN (RAM) + LENGTH (RAM))
                0x00000200                _Min_Heap_Size = 0x200
                0x00000400                _Min_Stack_Size = 0x400

.isr_vector     0x08000000      0x1e4
                0x08000000                . = ALIGN (0x4)
 *(.isr_vector)
 .isr_vector    0x08000000      0x1e4 build/startup_stm32f103xe.o
                0x08000000                g_pfnVectors
                0x080001e4                . = ALIGN (0x4)

.text           0x080001e8     0x6810
                0x080001e8                . = ALIGN (0x4)
 *(.text)
 .text          0x080001e8      0x378 i:/mcu/gnu_tools_for_arm/11.3_rel1/bin/../lib/gcc/arm-none-eabi/11.3.1/thumb/v7-m/nofp\libgcc.a(_arm_addsubdf3.o)
                0x080001e8                __aeabi_drsub
                0x080001f0                __aeabi_dsub
                0x080001f0                __subdf3
                0x080001f4                __aeabi_dadd
                0x080001f4                __adddf3
                0x0800046c                __floatunsidf
                0x0800046c                __aeabi_ui2d
                0x0800048c                __floatsidf
                0x0800048c                __aeabi_i2d
                0x080004b0                __aeabi_f2d
                0x080004b0                __extendsfdf2
                0x080004f4                __floatundidf
                0x080004f4                __aeabi_ul2d
                0x08000504                __floatdidf
                0x08000504                __aeabi_l2d
 .text          0x08000560      0x424 i:/mcu/gnu_tools_for_arm/11.3_rel1/bin/../lib/gcc/arm-none-eabi/11.3.1/thumb/v7-m/nofp\libgcc.a(_arm_muldivdf3.o)
                0x08000560                __aeabi_dmul
                0x08000560                __muldf3
                0x080007b4                __divdf3
                0x080007b4                __aeabi_ddiv
 .text          0x08000984      0x110 i:/mcu/gnu_tools_for_arm/11.3_rel1/bin/../lib/gcc/arm-none-eabi/11.3.1/thumb/v7-m/nofp\libgcc.a(_arm_cmpdf2.o)
                0x08000984                __gtdf2
                0x08000984                __gedf2
                0x0800098c                __ltdf2
                0x0800098c                __ledf2
                0x08000994                __nedf2
                0x08000994                __eqdf2
                0x08000994                __cmpdf2
                0x08000a10                __aeabi_cdrcmple
                0x08000a20                __aeabi_cdcmpeq
                0x08000a20                __aeabi_cdcmple
                0x08000a30                __aeabi_dcmpeq
                0x08000a44                __aeabi_dcmplt
                0x08000a58                __aeabi_dcmple
                0x08000a6c                __aeabi_dcmpge
                0x08000a80                __aeabi_dcmpgt
 .text          0x08000a94       0x2c i:/mcu/gnu_tools_for_arm/11.3_rel1/bin/../lib/gcc/arm-none-eabi/11.3.1/thumb/v7-m/nofp\libgcc.a(_arm_unorddf2.o)
                0x08000a94                __unorddf2
                0x08000a94                __aeabi_dcmpun
 .text          0x08000ac0       0xa0 i:/mcu/gnu_tools_for_arm/11.3_rel1/bin/../lib/gcc/arm-none-eabi/11.3.1/thumb/v7-m/nofp\libgcc.a(_arm_truncdfsf2.o)
                0x08000ac0                __truncdfsf2
                0x08000ac0                __aeabi_d2f
 .text          0x08000b60      0x21c i:/mcu/gnu_tools_for_arm/11.3_rel1/bin/../lib/gcc/arm-none-eabi/11.3.1/thumb/v7-m/nofp\libgcc.a(_arm_addsubsf3.o)
                0x08000b60                __aeabi_frsub
                0x08000b68                __subsf3
                0x08000b68                __aeabi_fsub
                0x08000b6c                __aeabi_fadd
                0x08000b6c                __addsf3
                0x08000ccc                __aeabi_ui2f
                0x08000ccc                __floatunsisf
                0x08000cd4                __aeabi_i2f
                0x08000cd4                __floatsisf
                0x08000cf0                __aeabi_ul2f
                0x08000cf0                __floatundisf
                0x08000d00                __aeabi_l2f
                0x08000d00                __floatdisf
 .text          0x08000d7c      0x2a0 i:/mcu/gnu_tools_for_arm/11.3_rel1/bin/../lib/gcc/arm-none-eabi/11.3.1/thumb/v7-m/nofp\libgcc.a(_arm_muldivsf3.o)
                0x08000d7c                __mulsf3
                0x08000d7c                __aeabi_fmul
                0x08000ee4                __aeabi_fdiv
                0x08000ee4                __divsf3
 .text          0x0800101c       0xec i:/mcu/gnu_tools_for_arm/11.3_rel1/bin/../lib/gcc/arm-none-eabi/11.3.1/thumb/v7-m/nofp\libgcc.a(_arm_cmpsf2.o)
                0x0800101c                __gesf2
                0x0800101c                __gtsf2
                0x08001024                __lesf2
                0x08001024                __ltsf2
                0x0800102c                __nesf2
                0x0800102c                __eqsf2
                0x0800102c                __cmpsf2
                0x0800108c                __aeabi_cfrcmple
                0x08001094                __aeabi_cfcmpeq
                0x08001094                __aeabi_cfcmple
                0x080010a4                __aeabi_fcmpeq
                0x080010b8                __aeabi_fcmplt
                0x080010cc                __aeabi_fcmple
                0x080010e0                __aeabi_fcmpge
                0x080010f4                __aeabi_fcmpgt
 .text          0x08001108       0x40 i:/mcu/gnu_tools_for_arm/11.3_rel1/bin/../lib/gcc/arm-none-eabi/11.3.1/thumb/v7-m/nofp\libgcc.a(_arm_fixunssfsi.o)
                0x08001108                __fixunssfsi
                0x08001108                __aeabi_f2uiz
 *(.text*)
 .text.deregister_tm_clones
                0x08001148       0x1c i:/mcu/gnu_tools_for_arm/11.3_rel1/bin/../lib/gcc/arm-none-eabi/11.3.1/thumb/v7-m/nofp/crtbegin.o
 .text.register_tm_clones
                0x08001164       0x24 i:/mcu/gnu_tools_for_arm/11.3_rel1/bin/../lib/gcc/arm-none-eabi/11.3.1/thumb/v7-m/nofp/crtbegin.o
 .text.__do_global_dtors_aux
                0x08001188       0x28 i:/mcu/gnu_tools_for_arm/11.3_rel1/bin/../lib/gcc/arm-none-eabi/11.3.1/thumb/v7-m/nofp/crtbegin.o
 .text.frame_dummy
                0x080011b0       0x24 i:/mcu/gnu_tools_for_arm/11.3_rel1/bin/../lib/gcc/arm-none-eabi/11.3.1/thumb/v7-m/nofp/crtbegin.o
 .text.Error_Handler
                0x080011d4        0x4 build/main.o
                0x080011d4                Error_Handler
 .text.SystemClock_Config
                0x080011d8       0x60 build/main.o
                0x080011d8                SystemClock_Config
 .text.main     0x08001238       0x80 build/main.o
                0x08001238                main
 .text.MX_GPIO_Init
                0x080012b8       0x78 build/gpio.o
                0x080012b8                MX_GPIO_Init
 .text.MX_I2C1_Init
                0x08001330       0x3c build/i2c.o
                0x08001330                MX_I2C1_Init
 .text.MX_I2C2_Init
                0x0800136c       0x3c build/i2c.o
                0x0800136c                MX_I2C2_Init
 .text.HAL_I2C_MspInit
                0x080013a8       0xac build/i2c.o
                0x080013a8                HAL_I2C_MspInit
 .text.MX_USART1_UART_Init
                0x08001454       0x34 build/usart.o
                0x08001454                MX_USART1_UART_Init
 .text.HAL_UART_MspInit
                0x08001488       0x78 build/usart.o
                0x08001488                HAL_UART_MspInit
 .text.NMI_Handler
                0x08001500        0x2 build/stm32f1xx_it.o
                0x08001500                NMI_Handler
 .text.HardFault_Handler
                0x08001502        0x2 build/stm32f1xx_it.o
                0x08001502                HardFault_Handler
 .text.MemManage_Handler
                0x08001504        0x2 build/stm32f1xx_it.o
                0x08001504                MemManage_Handler
 .text.BusFault_Handler
                0x08001506        0x2 build/stm32f1xx_it.o
                0x08001506                BusFault_Handler
 .text.UsageFault_Handler
                0x08001508        0x2 build/stm32f1xx_it.o
                0x08001508                UsageFault_Handler
 .text.SVC_Handler
                0x0800150a        0x2 build/stm32f1xx_it.o
                0x0800150a                SVC_Handler
 .text.DebugMon_Handler
                0x0800150c        0x2 build/stm32f1xx_it.o
                0x0800150c                DebugMon_Handler
 .text.PendSV_Handler
                0x0800150e        0x2 build/stm32f1xx_it.o
                0x0800150e                PendSV_Handler
 .text.SysTick_Handler
                0x08001510        0x8 build/stm32f1xx_it.o
                0x08001510                SysTick_Handler
 .text.HAL_MspInit
                0x08001518       0x44 build/stm32f1xx_hal_msp.o
                0x08001518                HAL_MspInit
 .text.I2C_IsAcknowledgeFailed
                0x0800155c       0x32 build/stm32f1xx_hal_i2c.o
 .text.I2C_WaitOnFlagUntilTimeout
                0x0800158e       0x7c build/stm32f1xx_hal_i2c.o
 .text.I2C_WaitOnMasterAddressFlagUntilTimeout
                0x0800160a       0xaa build/stm32f1xx_hal_i2c.o
 .text.I2C_WaitOnTXEFlagUntilTimeout
                0x080016b4       0x54 build/stm32f1xx_hal_i2c.o
 .text.I2C_RequestMemoryWrite
                0x08001708       0xd8 build/stm32f1xx_hal_i2c.o
 .text.I2C_RequestMemoryRead
                0x080017e0      0x154 build/stm32f1xx_hal_i2c.o
 .text.I2C_WaitOnBTFFlagUntilTimeout
                0x08001934       0x54 build/stm32f1xx_hal_i2c.o
 .text.I2C_WaitOnRXNEFlagUntilTimeout
                0x08001988       0x6a build/stm32f1xx_hal_i2c.o
 *fill*         0x080019f2        0x2 
 .text.HAL_I2C_Init
                0x080019f4      0x1bc build/stm32f1xx_hal_i2c.o
                0x080019f4                HAL_I2C_Init
 .text.HAL_I2C_Mem_Write
                0x08001bb0      0x164 build/stm32f1xx_hal_i2c.o
                0x08001bb0                HAL_I2C_Mem_Write
 .text.HAL_I2C_Mem_Read
                0x08001d14      0x348 build/stm32f1xx_hal_i2c.o
                0x08001d14                HAL_I2C_Mem_Read
 .text.HAL_InitTick
                0x0800205c       0x4c build/stm32f1xx_hal.o
                0x0800205c                HAL_InitTick
 .text.HAL_Init
                0x080020a8       0x24 build/stm32f1xx_hal.o
                0x080020a8                HAL_Init
 .text.HAL_IncTick
                0x080020cc       0x18 build/stm32f1xx_hal.o
                0x080020cc                HAL_IncTick
 .text.HAL_GetTick
                0x080020e4        0xc build/stm32f1xx_hal.o
                0x080020e4                HAL_GetTick
 .text.HAL_Delay
                0x080020f0       0x28 build/stm32f1xx_hal.o
                0x080020f0                HAL_Delay
 .text.RCC_Delay
                0x08002118       0x2c build/stm32f1xx_hal_rcc.o
 .text.HAL_RCC_OscConfig
                0x08002144      0x410 build/stm32f1xx_hal_rcc.o
                0x08002144                HAL_RCC_OscConfig
 .text.HAL_RCC_GetSysClockFreq
                0x08002554       0x70 build/stm32f1xx_hal_rcc.o
                0x08002554                HAL_RCC_GetSysClockFreq
 .text.HAL_RCC_ClockConfig
                0x080025c4      0x16c build/stm32f1xx_hal_rcc.o
                0x080025c4                HAL_RCC_ClockConfig
 .text.HAL_RCC_GetHCLKFreq
                0x08002730        0xc build/stm32f1xx_hal_rcc.o
                0x08002730                HAL_RCC_GetHCLKFreq
 .text.HAL_RCC_GetPCLK1Freq
                0x0800273c       0x20 build/stm32f1xx_hal_rcc.o
                0x0800273c                HAL_RCC_GetPCLK1Freq
 .text.HAL_RCC_GetPCLK2Freq
                0x0800275c       0x20 build/stm32f1xx_hal_rcc.o
                0x0800275c                HAL_RCC_GetPCLK2Freq
 .text.HAL_GPIO_Init
                0x0800277c      0x240 build/stm32f1xx_hal_gpio.o
                0x0800277c                HAL_GPIO_Init
 .text.HAL_GPIO_WritePin
                0x080029bc        0xc build/stm32f1xx_hal_gpio.o
                0x080029bc                HAL_GPIO_WritePin
 .text.HAL_NVIC_SetPriorityGrouping
                0x080029c8       0x24 build/stm32f1xx_hal_cortex.o
                0x080029c8                HAL_NVIC_SetPriorityGrouping
 .text.HAL_NVIC_SetPriority
                0x080029ec       0x70 build/stm32f1xx_hal_cortex.o
                0x080029ec                HAL_NVIC_SetPriority
 .text.HAL_SYSTICK_Config
                0x08002a5c       0x28 build/stm32f1xx_hal_cortex.o
                0x08002a5c                HAL_SYSTICK_Config
 .text.UART_SetConfig
                0x08002a84       0x94 build/stm32f1xx_hal_uart.o
 .text.UART_WaitOnFlagUntilTimeout
                0x08002b18       0x68 build/stm32f1xx_hal_uart.o
 .text.HAL_UART_Init
                0x08002b80       0x5e build/stm32f1xx_hal_uart.o
                0x08002b80                HAL_UART_Init
 .text.HAL_UART_Transmit
                0x08002bde       0xd8 build/stm32f1xx_hal_uart.o
                0x08002bde                HAL_UART_Transmit
 .text.HAL_UART_Receive
                0x08002cb6       0xe4 build/stm32f1xx_hal_uart.o
                0x08002cb6                HAL_UART_Receive
 .text.SystemInit
                0x08002d9a        0x2 build/system_stm32f1xx.o
                0x08002d9a                SystemInit
 .text.AS7341_Read_Byte
                0x08002d9c        0xa build/Waveshare_AS7341.o
 .text.AS7341_Write_Byte
                0x08002da6        0x8 build/Waveshare_AS7341.o
 *fill*         0x08002dae        0x2 
 .text.AS7341_Enable
                0x08002db0       0x34 build/Waveshare_AS7341.o
                0x08002db0                AS7341_Enable
 .text.AS7341_Init
                0x08002de4       0x1c build/Waveshare_AS7341.o
                0x08002de4                AS7341_Init
 .text.AS7341_EnableSpectralMeasure
                0x08002e00       0x22 build/Waveshare_AS7341.o
                0x08002e00                AS7341_EnableSpectralMeasure
 .text.AS7341_EnableSMUX
                0x08002e22       0x22 build/Waveshare_AS7341.o
                0x08002e22                AS7341_EnableSMUX
 .text.F1F4_Clear_NIR
                0x08002e44       0xa4 build/Waveshare_AS7341.o
                0x08002e44                F1F4_Clear_NIR
 .text.F5F8_Clear_NIR
                0x08002ee8       0xa4 build/Waveshare_AS7341.o
                0x08002ee8                F5F8_Clear_NIR
 .text.AS7341_MeasureComplete
                0x08002f8c       0x16 build/Waveshare_AS7341.o
                0x08002f8c                AS7341_MeasureComplete
 .text.AS7341_GetChannelData
                0x08002fa2       0x3c build/Waveshare_AS7341.o
                0x08002fa2                AS7341_GetChannelData
 .text.AS7341_ReadSpectralDataOne
                0x08002fde       0x52 build/Waveshare_AS7341.o
                0x08002fde                AS7341_ReadSpectralDataOne
 .text.AS7341_ReadSpectralDataTwo
                0x08003030       0x52 build/Waveshare_AS7341.o
                0x08003030                AS7341_ReadSpectralDataTwo
 .text.AS7341_SetGpioMode
                0x08003082       0x26 build/Waveshare_AS7341.o
                0x08003082                AS7341_SetGpioMode
 .text.AS7341_ATIME_config
                0x080030a8        0xc build/Waveshare_AS7341.o
                0x080030a8                AS7341_ATIME_config
 .text.AS7341_ASTEP_config
                0x080030b4       0x16 build/Waveshare_AS7341.o
                0x080030b4                AS7341_ASTEP_config
 .text.AS7341_AGAIN_config
                0x080030ca       0x12 build/Waveshare_AS7341.o
                0x080030ca                AS7341_AGAIN_config
 .text.AS7341_SetBank
                0x080030dc       0x26 build/Waveshare_AS7341.o
                0x080030dc                AS7341_SetBank
 .text.AS7341_Config
                0x08003102       0x46 build/Waveshare_AS7341.o
                0x08003102                AS7341_Config
 .text.AS7341_startMeasure
                0x08003148       0x7c build/Waveshare_AS7341.o
                0x08003148                AS7341_startMeasure
 .text.AS7341_EnableLED
                0x080031c4       0x42 build/Waveshare_AS7341.o
                0x080031c4                AS7341_EnableLED
 .text.AS7341_ControlLed
                0x08003206       0x3a build/Waveshare_AS7341.o
                0x08003206                AS7341_ControlLed
 .text.DEV_Delay_ms
                0x08003240        0x8 build/DEV_Config.o
                0x08003240                DEV_Delay_ms
 .text.DEV_I2C_Init
                0x08003248       0x14 build/DEV_Config.o
                0x08003248                DEV_I2C_Init
 .text.I2C_Write_Byte
                0x0800325c       0x34 build/DEV_Config.o
                0x0800325c                I2C_Write_Byte
 .text.I2C_Read_Byte
                0x08003290       0x38 build/DEV_Config.o
                0x08003290                I2C_Read_Byte
 .text.DEV_ModuleInit
                0x080032c8        0xc build/DEV_Config.o
                0x080032c8                DEV_ModuleInit
 *fill*         0x080032d4        0x4 
 .text.TemCalculate
                0x080032d8      0x620 build/ColorTemperature.o
                0x080032d8                TemCalculate
 .text.Calcute_Ra
                0x080038f8      0xd8c build/Ra_calculate.o
                0x080038f8                Calcute_Ra
 *fill*         0x08004684        0x4 
 .text.My_Getdata_test
                0x08004688      0x208 build/Ra_calculate.o
                0x08004688                My_Getdata_test
 .text.Device_Init
                0x08004890       0x2c build/Ra_calculate.o
                0x08004890                Device_Init
 .text.RetargetInit
                0x080048bc       0x20 build/retarget.o
                0x080048bc                RetargetInit
 .text._isatty  0x080048dc       0x16 build/retarget.o
                0x080048dc                _isatty
 *fill*         0x080048f2        0x2 
 .text._write   0x080048f4       0x34 build/retarget.o
                0x080048f4                _write
 .text._close   0x08004928       0x18 build/retarget.o
                0x08004928                _close
 .text._lseek   0x08004940       0x10 build/retarget.o
                0x08004940                _lseek
 .text._read    0x08004950       0x30 build/retarget.o
                0x08004950                _read
 .text._fstat   0x08004980       0x1a build/retarget.o
                0x08004980                _fstat
 *fill*         0x0800499a        0x2 
 .text.Reset_Handler
                0x0800499c       0x48 build/startup_stm32f103xe.o
                0x0800499c                Reset_Handler
 .text.Default_Handler
                0x080049e4        0x2 build/startup_stm32f103xe.o
                0x080049e4                RTC_Alarm_IRQHandler
                0x080049e4                EXTI2_IRQHandler
                0x080049e4                TIM8_TRG_COM_IRQHandler
                0x080049e4                TIM8_CC_IRQHandler
                0x080049e4                TIM1_CC_IRQHandler
                0x080049e4                TIM6_IRQHandler
                0x080049e4                PVD_IRQHandler
                0x080049e4                SDIO_IRQHandler
                0x080049e4                EXTI3_IRQHandler
                0x080049e4                EXTI0_IRQHandler
                0x080049e4                I2C2_EV_IRQHandler
                0x080049e4                ADC1_2_IRQHandler
                0x080049e4                SPI1_IRQHandler
                0x080049e4                TAMPER_IRQHandler
                0x080049e4                TIM8_UP_IRQHandler
                0x080049e4                DMA2_Channel2_IRQHandler
                0x080049e4                DMA1_Channel4_IRQHandler
                0x080049e4                USART3_IRQHandler
                0x080049e4                RTC_IRQHandler
                0x080049e4                DMA1_Channel7_IRQHandler
                0x080049e4                CAN1_RX1_IRQHandler
                0x080049e4                UART5_IRQHandler
                0x080049e4                ADC3_IRQHandler
                0x080049e4                TIM4_IRQHandler
                0x080049e4                DMA2_Channel1_IRQHandler
                0x080049e4                I2C1_EV_IRQHandler
                0x080049e4                DMA1_Channel6_IRQHandler
                0x080049e4                UART4_IRQHandler
                0x080049e4                TIM3_IRQHandler
                0x080049e4                RCC_IRQHandler
                0x080049e4                TIM1_TRG_COM_IRQHandler
                0x080049e4                DMA1_Channel1_IRQHandler
                0x080049e4                Default_Handler
                0x080049e4                EXTI15_10_IRQHandler
                0x080049e4                TIM7_IRQHandler
                0x080049e4                TIM5_IRQHandler
                0x080049e4                EXTI9_5_IRQHandler
                0x080049e4                SPI2_IRQHandler
                0x080049e4                DMA1_Channel5_IRQHandler
                0x080049e4                EXTI4_IRQHandler
                0x080049e4                USB_LP_CAN1_RX0_IRQHandler
                0x080049e4                USB_HP_CAN1_TX_IRQHandler
                0x080049e4                DMA1_Channel3_IRQHandler
                0x080049e4                FSMC_IRQHandler
                0x080049e4                TIM1_UP_IRQHandler
                0x080049e4                WWDG_IRQHandler
                0x080049e4                TIM2_IRQHandler
                0x080049e4                TIM1_BRK_IRQHandler
                0x080049e4                EXTI1_IRQHandler
                0x080049e4                DMA2_Channel4_5_IRQHandler
                0x080049e4                USART2_IRQHandler
                0x080049e4                I2C2_ER_IRQHandler
                0x080049e4                DMA1_Channel2_IRQHandler
                0x080049e4                TIM8_BRK_IRQHandler
                0x080049e4                CAN1_SCE_IRQHandler
                0x080049e4                FLASH_IRQHandler
                0x080049e4                USART1_IRQHandler
                0x080049e4                SPI3_IRQHandler
                0x080049e4                I2C1_ER_IRQHandler
                0x080049e4                USBWakeUp_IRQHandler
                0x080049e4                DMA2_Channel3_IRQHandler
 *fill*         0x080049e6        0x2 
 .text.std      0x080049e8       0x48 i:/mcu/gnu_tools_for_arm/11.3_rel1/bin/../lib/gcc/arm-none-eabi/11.3.1/thumb/v7-m/nofp\libc_nano.a(libc_a-findfp.o)
 .text.stdio_exit_handler
                0x08004a30       0x18 i:/mcu/gnu_tools_for_arm/11.3_rel1/bin/../lib/gcc/arm-none-eabi/11.3.1/thumb/v7-m/nofp\libc_nano.a(libc_a-findfp.o)
 .text.cleanup_stdio
                0x08004a48       0x40 i:/mcu/gnu_tools_for_arm/11.3_rel1/bin/../lib/gcc/arm-none-eabi/11.3.1/thumb/v7-m/nofp\libc_nano.a(libc_a-findfp.o)
 .text.global_stdio_init.part.0
                0x08004a88       0x3c i:/mcu/gnu_tools_for_arm/11.3_rel1/bin/../lib/gcc/arm-none-eabi/11.3.1/thumb/v7-m/nofp\libc_nano.a(libc_a-findfp.o)
 .text.__sfp_lock_acquire
                0x08004ac4        0xc i:/mcu/gnu_tools_for_arm/11.3_rel1/bin/../lib/gcc/arm-none-eabi/11.3.1/thumb/v7-m/nofp\libc_nano.a(libc_a-findfp.o)
                0x08004ac4                __sfp_lock_acquire
 .text.__sfp_lock_release
                0x08004ad0        0xc i:/mcu/gnu_tools_for_arm/11.3_rel1/bin/../lib/gcc/arm-none-eabi/11.3.1/thumb/v7-m/nofp\libc_nano.a(libc_a-findfp.o)
                0x08004ad0                __sfp_lock_release
 .text.__sinit  0x08004adc       0x30 i:/mcu/gnu_tools_for_arm/11.3_rel1/bin/../lib/gcc/arm-none-eabi/11.3.1/thumb/v7-m/nofp\libc_nano.a(libc_a-findfp.o)
                0x08004adc                __sinit
 .text._fwalk_sglue
                0x08004b0c       0x3c i:/mcu/gnu_tools_for_arm/11.3_rel1/bin/../lib/gcc/arm-none-eabi/11.3.1/thumb/v7-m/nofp\libc_nano.a(libc_a-fwalk.o)
                0x08004b0c                _fwalk_sglue
 .text.printf   0x08004b48       0x24 i:/mcu/gnu_tools_for_arm/11.3_rel1/bin/../lib/gcc/arm-none-eabi/11.3.1/thumb/v7-m/nofp\libc_nano.a(libc_a-printf.o)
                0x08004b48                iprintf
                0x08004b48                printf
 .text._puts_r  0x08004b6c       0xa8 i:/mcu/gnu_tools_for_arm/11.3_rel1/bin/../lib/gcc/arm-none-eabi/11.3.1/thumb/v7-m/nofp\libc_nano.a(libc_a-puts.o)
                0x08004b6c                _puts_r
 .text.puts     0x08004c14       0x10 i:/mcu/gnu_tools_for_arm/11.3_rel1/bin/../lib/gcc/arm-none-eabi/11.3.1/thumb/v7-m/nofp\libc_nano.a(libc_a-puts.o)
                0x08004c14                puts
 .text.setvbuf  0x08004c24      0x15c i:/mcu/gnu_tools_for_arm/11.3_rel1/bin/../lib/gcc/arm-none-eabi/11.3.1/thumb/v7-m/nofp\libc_nano.a(libc_a-setvbuf.o)
                0x08004c24                setvbuf
 .text.__sread  0x08004d80       0x22 i:/mcu/gnu_tools_for_arm/11.3_rel1/bin/../lib/gcc/arm-none-eabi/11.3.1/thumb/v7-m/nofp\libc_nano.a(libc_a-stdio.o)
                0x08004d80                __sread
 .text.__swrite
                0x08004da2       0x38 i:/mcu/gnu_tools_for_arm/11.3_rel1/bin/../lib/gcc/arm-none-eabi/11.3.1/thumb/v7-m/nofp\libc_nano.a(libc_a-stdio.o)
                0x08004da2                __swrite
 .text.__sseek  0x08004dda       0x24 i:/mcu/gnu_tools_for_arm/11.3_rel1/bin/../lib/gcc/arm-none-eabi/11.3.1/thumb/v7-m/nofp\libc_nano.a(libc_a-stdio.o)
                0x08004dda                __sseek
 .text.__sclose
                0x08004dfe        0x8 i:/mcu/gnu_tools_for_arm/11.3_rel1/bin/../lib/gcc/arm-none-eabi/11.3.1/thumb/v7-m/nofp\libc_nano.a(libc_a-stdio.o)
                0x08004dfe                __sclose
 .text.__swbuf_r
                0x08004e06       0x7a i:/mcu/gnu_tools_for_arm/11.3_rel1/bin/../lib/gcc/arm-none-eabi/11.3.1/thumb/v7-m/nofp\libc_nano.a(libc_a-wbuf.o)
                0x08004e06                __swbuf_r
 .text.__swsetup_r
                0x08004e80       0xb0 i:/mcu/gnu_tools_for_arm/11.3_rel1/bin/../lib/gcc/arm-none-eabi/11.3.1/thumb/v7-m/nofp\libc_nano.a(libc_a-wsetup.o)
                0x08004e80                __swsetup_r
 .text.memset   0x08004f30       0x10 i:/mcu/gnu_tools_for_arm/11.3_rel1/bin/../lib/gcc/arm-none-eabi/11.3.1/thumb/v7-m/nofp\libc_nano.a(libc_a-memset.o)
                0x08004f30                memset
 .text._close_r
                0x08004f40       0x20 i:/mcu/gnu_tools_for_arm/11.3_rel1/bin/../lib/gcc/arm-none-eabi/11.3.1/thumb/v7-m/nofp\libc_nano.a(libc_a-closer.o)
                0x08004f40                _close_r
 .text._lseek_r
                0x08004f60       0x24 i:/mcu/gnu_tools_for_arm/11.3_rel1/bin/../lib/gcc/arm-none-eabi/11.3.1/thumb/v7-m/nofp\libc_nano.a(libc_a-lseekr.o)
                0x08004f60                _lseek_r
 .text._read_r  0x08004f84       0x24 i:/mcu/gnu_tools_for_arm/11.3_rel1/bin/../lib/gcc/arm-none-eabi/11.3.1/thumb/v7-m/nofp\libc_nano.a(libc_a-readr.o)
                0x08004f84                _read_r
 .text._write_r
                0x08004fa8       0x24 i:/mcu/gnu_tools_for_arm/11.3_rel1/bin/../lib/gcc/arm-none-eabi/11.3.1/thumb/v7-m/nofp\libc_nano.a(libc_a-writer.o)
                0x08004fa8                _write_r
 .text.__errno  0x08004fcc        0xc i:/mcu/gnu_tools_for_arm/11.3_rel1/bin/../lib/gcc/arm-none-eabi/11.3.1/thumb/v7-m/nofp\libc_nano.a(libc_a-errno.o)
                0x08004fcc                __errno
 .text.__libc_init_array
                0x08004fd8       0x48 i:/mcu/gnu_tools_for_arm/11.3_rel1/bin/../lib/gcc/arm-none-eabi/11.3.1/thumb/v7-m/nofp\libc_nano.a(libc_a-init.o)
                0x08004fd8                __libc_init_array
 .text.__retarget_lock_acquire_recursive
                0x08005020        0x2 i:/mcu/gnu_tools_for_arm/11.3_rel1/bin/../lib/gcc/arm-none-eabi/11.3.1/thumb/v7-m/nofp\libc_nano.a(libc_a-lock.o)
                0x08005020                __retarget_lock_acquire_recursive
 .text.__retarget_lock_release_recursive
                0x08005022        0x2 i:/mcu/gnu_tools_for_arm/11.3_rel1/bin/../lib/gcc/arm-none-eabi/11.3.1/thumb/v7-m/nofp\libc_nano.a(libc_a-lock.o)
                0x08005022                __retarget_lock_release_recursive
 .text._free_r  0x08005024       0x90 i:/mcu/gnu_tools_for_arm/11.3_rel1/bin/../lib/gcc/arm-none-eabi/11.3.1/thumb/v7-m/nofp\libc_nano.a(libc_a-freer.o)
                0x08005024                _free_r
 .text.malloc   0x080050b4       0x10 i:/mcu/gnu_tools_for_arm/11.3_rel1/bin/../lib/gcc/arm-none-eabi/11.3.1/thumb/v7-m/nofp\libc_nano.a(libc_a-malloc.o)
                0x080050b4                malloc
 .text.sbrk_aligned
                0x080050c4       0x40 i:/mcu/gnu_tools_for_arm/11.3_rel1/bin/../lib/gcc/arm-none-eabi/11.3.1/thumb/v7-m/nofp\libc_nano.a(libc_a-mallocr.o)
 .text._malloc_r
                0x08005104       0xec i:/mcu/gnu_tools_for_arm/11.3_rel1/bin/../lib/gcc/arm-none-eabi/11.3.1/thumb/v7-m/nofp\libc_nano.a(libc_a-mallocr.o)
                0x08005104                _malloc_r
 .text.__malloc_lock
                0x080051f0        0xc i:/mcu/gnu_tools_for_arm/11.3_rel1/bin/../lib/gcc/arm-none-eabi/11.3.1/thumb/v7-m/nofp\libc_nano.a(libc_a-mlock.o)
                0x080051f0                __malloc_lock
 .text.__malloc_unlock
                0x080051fc        0xc i:/mcu/gnu_tools_for_arm/11.3_rel1/bin/../lib/gcc/arm-none-eabi/11.3.1/thumb/v7-m/nofp\libc_nano.a(libc_a-mlock.o)
                0x080051fc                __malloc_unlock
 .text.__sfputc_r
                0x08005208       0x2a i:/mcu/gnu_tools_for_arm/11.3_rel1/bin/../lib/gcc/arm-none-eabi/11.3.1/thumb/v7-m/nofp\libc_nano.a(libc_a-nano-vfprintf.o)
 .text.__sfputs_r
                0x08005232       0x24 i:/mcu/gnu_tools_for_arm/11.3_rel1/bin/../lib/gcc/arm-none-eabi/11.3.1/thumb/v7-m/nofp\libc_nano.a(libc_a-nano-vfprintf.o)
                0x08005232                __sfputs_r
 *fill*         0x08005256        0x2 
 .text._vfprintf_r
                0x08005258      0x234 i:/mcu/gnu_tools_for_arm/11.3_rel1/bin/../lib/gcc/arm-none-eabi/11.3.1/thumb/v7-m/nofp\libc_nano.a(libc_a-nano-vfprintf.o)
                0x08005258                _vfprintf_r
                0x08005258                _vfiprintf_r
 .text._printf_common
                0x0800548c       0xe4 i:/mcu/gnu_tools_for_arm/11.3_rel1/bin/../lib/gcc/arm-none-eabi/11.3.1/thumb/v7-m/nofp\libc_nano.a(libc_a-nano-vfprintf_i.o)
                0x0800548c                _printf_common
 .text._printf_i
                0x08005570      0x244 i:/mcu/gnu_tools_for_arm/11.3_rel1/bin/../lib/gcc/arm-none-eabi/11.3.1/thumb/v7-m/nofp\libc_nano.a(libc_a-nano-vfprintf_i.o)
                0x08005570                _printf_i
 .text.__sflush_r
                0x080057b4      0x104 i:/mcu/gnu_tools_for_arm/11.3_rel1/bin/../lib/gcc/arm-none-eabi/11.3.1/thumb/v7-m/nofp\libc_nano.a(libc_a-fflush.o)
                0x080057b4                __sflush_r
 .text._fflush_r
                0x080058b8       0x50 i:/mcu/gnu_tools_for_arm/11.3_rel1/bin/../lib/gcc/arm-none-eabi/11.3.1/thumb/v7-m/nofp\libc_nano.a(libc_a-fflush.o)
                0x080058b8                _fflush_r
 .text.__swhatbuf_r
                0x08005908       0x4a i:/mcu/gnu_tools_for_arm/11.3_rel1/bin/../lib/gcc/arm-none-eabi/11.3.1/thumb/v7-m/nofp\libc_nano.a(libc_a-makebuf.o)
                0x08005908                __swhatbuf_r
 .text.__smakebuf_r
                0x08005952       0x78 i:/mcu/gnu_tools_for_arm/11.3_rel1/bin/../lib/gcc/arm-none-eabi/11.3.1/thumb/v7-m/nofp\libc_nano.a(libc_a-makebuf.o)
                0x08005952                __smakebuf_r
 *fill*         0x080059ca        0x2 
 .text._fstat_r
                0x080059cc       0x24 i:/mcu/gnu_tools_for_arm/11.3_rel1/bin/../lib/gcc/arm-none-eabi/11.3.1/thumb/v7-m/nofp\libc_nano.a(libc_a-fstatr.o)
                0x080059cc                _fstat_r
 .text._isatty_r
                0x080059f0       0x20 i:/mcu/gnu_tools_for_arm/11.3_rel1/bin/../lib/gcc/arm-none-eabi/11.3.1/thumb/v7-m/nofp\libc_nano.a(libc_a-isattyr.o)
                0x080059f0                _isatty_r
 .text._sbrk_r  0x08005a10       0x20 i:/mcu/gnu_tools_for_arm/11.3_rel1/bin/../lib/gcc/arm-none-eabi/11.3.1/thumb/v7-m/nofp\libc_nano.a(libc_a-sbrkr.o)
                0x08005a10                _sbrk_r
 .text.memchr   0x08005a30       0x1c i:/mcu/gnu_tools_for_arm/11.3_rel1/bin/../lib/gcc/arm-none-eabi/11.3.1/thumb/v7-m/nofp\libc_nano.a(libc_a-memchr-stub.o)
                0x08005a30                memchr
 .text.pow      0x08005a4c       0xdc i:/mcu/gnu_tools_for_arm/11.3_rel1/bin/../lib/gcc/arm-none-eabi/11.3.1/thumb/v7-m/nofp\libm.a(libm_a-w_pow.o)
                0x08005a4c                pow
 .text.sqrt     0x08005b28       0x50 i:/mcu/gnu_tools_for_arm/11.3_rel1/bin/../lib/gcc/arm-none-eabi/11.3.1/thumb/v7-m/nofp\libm.a(libm_a-w_sqrt.o)
                0x08005b28                sqrt
 .text.finite   0x08005b78        0xc i:/mcu/gnu_tools_for_arm/11.3_rel1/bin/../lib/gcc/arm-none-eabi/11.3.1/thumb/v7-m/nofp\libm.a(libm_a-s_finite.o)
                0x08005b78                finite
 .text.__ieee754_sqrt
                0x08005b84      0x1d8 i:/mcu/gnu_tools_for_arm/11.3_rel1/bin/../lib/gcc/arm-none-eabi/11.3.1/thumb/v7-m/nofp\libm.a(libm_a-e_sqrt.o)
                0x08005b84                __ieee754_sqrt
 *fill*         0x08005d5c        0x4 
 .text.__ieee754_pow
                0x08005d60      0xb08 i:/mcu/gnu_tools_for_arm/11.3_rel1/bin/../lib/gcc/arm-none-eabi/11.3.1/thumb/v7-m/nofp\libm.a(libm_a-e_pow.o)
                0x08005d60                __ieee754_pow
 .text.fabs     0x08006868        0x8 i:/mcu/gnu_tools_for_arm/11.3_rel1/bin/../lib/gcc/arm-none-eabi/11.3.1/thumb/v7-m/nofp\libm.a(libm_a-s_fabs.o)
                0x08006868                fabs
 .text.scalbn   0x08006870       0xf4 i:/mcu/gnu_tools_for_arm/11.3_rel1/bin/../lib/gcc/arm-none-eabi/11.3.1/thumb/v7-m/nofp\libm.a(libm_a-s_scalbn.o)
                0x08006870                scalbn
 .text.with_errno
                0x08006964       0x18 i:/mcu/gnu_tools_for_arm/11.3_rel1/bin/../lib/gcc/arm-none-eabi/11.3.1/thumb/v7-m/nofp\libm.a(libm_a-math_err.o)
 .text.xflow    0x0800697c       0x30 i:/mcu/gnu_tools_for_arm/11.3_rel1/bin/../lib/gcc/arm-none-eabi/11.3.1/thumb/v7-m/nofp\libm.a(libm_a-math_err.o)
 .text.__math_uflow
                0x080069ac        0xc i:/mcu/gnu_tools_for_arm/11.3_rel1/bin/../lib/gcc/arm-none-eabi/11.3.1/thumb/v7-m/nofp\libm.a(libm_a-math_err.o)
                0x080069ac                __math_uflow
 .text.__math_oflow
                0x080069b8        0xc i:/mcu/gnu_tools_for_arm/11.3_rel1/bin/../lib/gcc/arm-none-eabi/11.3.1/thumb/v7-m/nofp\libm.a(libm_a-math_err.o)
                0x080069b8                __math_oflow
 .text._sbrk    0x080069c4       0x1c i:/mcu/gnu_tools_for_arm/11.3_rel1/bin/../lib/gcc/arm-none-eabi/11.3.1/thumb/v7-m/nofp\libnosys.a(sbrk.o)
                0x080069c4                _sbrk
 *(.glue_7)
 .glue_7        0x080069e0        0x0 linker stubs
 *(.glue_7t)
 .glue_7t       0x080069e0        0x0 linker stubs
 *(.eh_frame)
 .eh_frame      0x080069e0        0x0 i:/mcu/gnu_tools_for_arm/11.3_rel1/bin/../lib/gcc/arm-none-eabi/11.3.1/thumb/v7-m/nofp/crtbegin.o
 *(.init)
 .init          0x080069e0        0x4 i:/mcu/gnu_tools_for_arm/11.3_rel1/bin/../lib/gcc/arm-none-eabi/11.3.1/thumb/v7-m/nofp/crti.o
                0x080069e0                _init
 .init          0x080069e4        0x8 i:/mcu/gnu_tools_for_arm/11.3_rel1/bin/../lib/gcc/arm-none-eabi/11.3.1/thumb/v7-m/nofp/crtn.o
 *(.fini)
 .fini          0x080069ec        0x4 i:/mcu/gnu_tools_for_arm/11.3_rel1/bin/../lib/gcc/arm-none-eabi/11.3.1/thumb/v7-m/nofp/crti.o
                0x080069ec                _fini
 .fini          0x080069f0        0x8 i:/mcu/gnu_tools_for_arm/11.3_rel1/bin/../lib/gcc/arm-none-eabi/11.3.1/thumb/v7-m/nofp/crtn.o
                0x080069f8                . = ALIGN (0x4)
                0x080069f8                _etext = .

.vfp11_veneer   0x080069f8        0x0
 .vfp11_veneer  0x080069f8        0x0 linker stubs

.v4_bx          0x080069f8        0x0
 .v4_bx         0x080069f8        0x0 linker stubs

.iplt           0x080069f8        0x0
 .iplt          0x080069f8        0x0 i:/mcu/gnu_tools_for_arm/11.3_rel1/bin/../lib/gcc/arm-none-eabi/11.3.1/thumb/v7-m/nofp/crtbegin.o

.rodata         0x080069f8      0x380
                0x080069f8                . = ALIGN (0x4)
 *(.rodata)
 *(.rodata*)
 .rodata.HAL_RCC_GetSysClockFreq.str1.4
                0x080069f8       0x11 build/stm32f1xx_hal_rcc.o
 *fill*         0x08006a09        0x3 
 .rodata.AHBPrescTable
                0x08006a0c       0x10 build/system_stm32f1xx.o
                0x08006a0c                AHBPrescTable
 .rodata.APBPrescTable
                0x08006a1c        0x8 build/system_stm32f1xx.o
                0x08006a1c                APBPrescTable
 .rodata.AS7341_Enable.str1.4
                0x08006a24       0x1e build/Waveshare_AS7341.o
 *fill*         0x08006a42        0x2 
 .rodata.My_Getdata_test.str1.4
                0x08006a44       0xf4 build/Ra_calculate.o
 .rodata._x_lamda
                0x08006b38       0x24 build/Ra_calculate.o
                0x08006b38                _x_lamda
 .rodata._y_lamda
                0x08006b5c       0x24 build/Ra_calculate.o
                0x08006b5c                _y_lamda
 .rodata._z_lamda
                0x08006b80       0x24 build/Ra_calculate.o
                0x08006b80                _z_lamda
 .rodata.lamda_value
                0x08006ba4       0x12 build/Ra_calculate.o
                0x08006ba4                lamda_value
 *fill*         0x08006bb6        0x2 
 .rodata.std_light_D_vec
                0x08006bb8       0x6c build/Ra_calculate.o
                0x08006bb8                std_light_D_vec
 .rodata.vis_reflect_table
                0x08006c24      0x120 build/Ra_calculate.o
                0x08006c24                vis_reflect_table
 .rodata._vfprintf_r.str1.1
                0x08006d44       0x11 i:/mcu/gnu_tools_for_arm/11.3_rel1/bin/../lib/gcc/arm-none-eabi/11.3.1/thumb/v7-m/nofp\libc_nano.a(libc_a-nano-vfprintf.o)
 .rodata._printf_i.str1.1
                0x08006d55       0x22 i:/mcu/gnu_tools_for_arm/11.3_rel1/bin/../lib/gcc/arm-none-eabi/11.3.1/thumb/v7-m/nofp\libc_nano.a(libc_a-nano-vfprintf_i.o)
                0x08006d78                . = ALIGN (0x4)
 *fill*         0x08006d77        0x1 

.rel.dyn        0x08006d78        0x0
 .rel.iplt      0x08006d78        0x0 i:/mcu/gnu_tools_for_arm/11.3_rel1/bin/../lib/gcc/arm-none-eabi/11.3.1/thumb/v7-m/nofp/crtbegin.o

.ARM.extab
 *(.ARM.extab* .gnu.linkonce.armextab.*)

.ARM            0x08006d78        0x0
                0x08006d78                __exidx_start = .
 *(.ARM.exidx*)
                0x08006d78                __exidx_end = .

.preinit_array  0x08006d78        0x0
                0x08006d78                PROVIDE (__preinit_array_start = .)
 *(.preinit_array*)
                0x08006d78                PROVIDE (__preinit_array_end = .)

.init_array     0x08006d78        0x4
                0x08006d78                PROVIDE (__init_array_start = .)
 *(SORT_BY_NAME(.init_array.*))
 *(.init_array*)
 .init_array    0x08006d78        0x4 i:/mcu/gnu_tools_for_arm/11.3_rel1/bin/../lib/gcc/arm-none-eabi/11.3.1/thumb/v7-m/nofp/crtbegin.o
                0x08006d7c                PROVIDE (__init_array_end = .)

.fini_array     0x08006d7c        0x4
                [!provide]                PROVIDE (__fini_array_start = .)
 *(SORT_BY_NAME(.fini_array.*))
 *(.fini_array*)
 .fini_array    0x08006d7c        0x4 i:/mcu/gnu_tools_for_arm/11.3_rel1/bin/../lib/gcc/arm-none-eabi/11.3.1/thumb/v7-m/nofp/crtbegin.o
                [!provide]                PROVIDE (__fini_array_end = .)
                0x08006d80                _sidata = LOADADDR (.data)

.data           0x20000000       0x78 load address 0x08006d80
                0x20000000                . = ALIGN (0x4)
                0x20000000                _sdata = .
 *(.data)
 *(.data*)
 .data.uwTickFreq
                0x20000000        0x1 build/stm32f1xx_hal.o
                0x20000000                uwTickFreq
 *fill*         0x20000001        0x3 
 .data.uwTickPrio
                0x20000004        0x4 build/stm32f1xx_hal.o
                0x20000004                uwTickPrio
 .data.SystemCoreClock
                0x20000008        0x4 build/system_stm32f1xx.o
                0x20000008                SystemCoreClock
 .data.__sglue  0x2000000c        0xc i:/mcu/gnu_tools_for_arm/11.3_rel1/bin/../lib/gcc/arm-none-eabi/11.3.1/thumb/v7-m/nofp\libc_nano.a(libc_a-findfp.o)
                0x2000000c                __sglue
 .data._impure_data
                0x20000018       0x4c i:/mcu/gnu_tools_for_arm/11.3_rel1/bin/../lib/gcc/arm-none-eabi/11.3.1/thumb/v7-m/nofp\libc_nano.a(libc_a-impure.o)
                0x20000018                _impure_data
 .data._impure_ptr
                0x20000064        0x4 i:/mcu/gnu_tools_for_arm/11.3_rel1/bin/../lib/gcc/arm-none-eabi/11.3.1/thumb/v7-m/nofp\libc_nano.a(libc_a-impure.o)
                0x20000064                _impure_ptr
 .data.one      0x20000068        0x8 i:/mcu/gnu_tools_for_arm/11.3_rel1/bin/../lib/gcc/arm-none-eabi/11.3.1/thumb/v7-m/nofp\libm.a(libm_a-e_sqrt.o)
 .data.tiny     0x20000070        0x8 i:/mcu/gnu_tools_for_arm/11.3_rel1/bin/../lib/gcc/arm-none-eabi/11.3.1/thumb/v7-m/nofp\libm.a(libm_a-e_sqrt.o)
                0x20000078                . = ALIGN (0x4)
                0x20000078                _edata = .

.tm_clone_table
                0x20000078        0x0 load address 0x08006df8
 .tm_clone_table
                0x20000078        0x0 i:/mcu/gnu_tools_for_arm/11.3_rel1/bin/../lib/gcc/arm-none-eabi/11.3.1/thumb/v7-m/nofp/crtbegin.o
 .tm_clone_table
                0x20000078        0x0 i:/mcu/gnu_tools_for_arm/11.3_rel1/bin/../lib/gcc/arm-none-eabi/11.3.1/thumb/v7-m/nofp/crtend.o

.igot.plt       0x20000078        0x0 load address 0x08006df8
 .igot.plt      0x20000078        0x0 i:/mcu/gnu_tools_for_arm/11.3_rel1/bin/../lib/gcc/arm-none-eabi/11.3.1/thumb/v7-m/nofp/crtbegin.o
                0x20000078                . = ALIGN (0x4)

.bss            0x20000078      0x29c load address 0x08006df8
                0x20000078                _sbss = .
                0x20000078                __bss_start__ = _sbss
 *(.bss)
 *(.bss*)
 .bss.completed.1
                0x20000078        0x1 i:/mcu/gnu_tools_for_arm/11.3_rel1/bin/../lib/gcc/arm-none-eabi/11.3.1/thumb/v7-m/nofp/crtbegin.o
 *fill*         0x20000079        0x3 
 .bss.object.0  0x2000007c       0x18 i:/mcu/gnu_tools_for_arm/11.3_rel1/bin/../lib/gcc/arm-none-eabi/11.3.1/thumb/v7-m/nofp/crtbegin.o
 .bss.hi2c1     0x20000094       0x54 build/i2c.o
                0x20000094                hi2c1
 .bss.hi2c2     0x200000e8       0x54 build/i2c.o
                0x200000e8                hi2c2
 .bss.huart1    0x2000013c       0x44 build/usart.o
                0x2000013c                huart1
 .bss.uwTick    0x20000180        0x4 build/stm32f1xx_hal.o
                0x20000180                uwTick
 .bss.measureMode
                0x20000184        0x1 build/Waveshare_AS7341.o
                0x20000184                measureMode
 .bss.DEV_I2C_Device
                0x20000185        0x1 build/DEV_Config.o
                0x20000185                DEV_I2C_Device
 .bss.I2C_ADDR  0x20000186        0x1 build/DEV_Config.o
                0x20000186                I2C_ADDR
 *fill*         0x20000187        0x1 
 .bss.X         0x20000188        0x4 build/ColorTemperature.o
                0x20000188                X
 .bss.Y         0x2000018c        0x4 build/ColorTemperature.o
                0x2000018c                Y
 .bss.Z         0x20000190        0x4 build/ColorTemperature.o
                0x20000190                Z
 .bss.cdc       0x20000194        0x4 build/ColorTemperature.o
                0x20000194                cdc
 .bss.n         0x20000198        0x4 build/ColorTemperature.o
                0x20000198                n
 .bss.x         0x2000019c        0x4 build/ColorTemperature.o
                0x2000019c                x
 .bss.y         0x200001a0        0x4 build/ColorTemperature.o
                0x200001a0                y
 .bss.z         0x200001a4        0x4 build/ColorTemperature.o
                0x200001a4                z
 .bss.data1     0x200001a8        0xc build/Getdata_test.o
                0x200001a8                data1
 .bss.data2     0x200001b4        0xc build/Getdata_test.o
                0x200001b4                data2
 .bss.gHuart    0x200001c0        0x4 build/retarget.o
                0x200001c0                gHuart
 .bss.__sf      0x200001c4      0x138 i:/mcu/gnu_tools_for_arm/11.3_rel1/bin/../lib/gcc/arm-none-eabi/11.3.1/thumb/v7-m/nofp\libc_nano.a(libc_a-findfp.o)
                0x200001c4                __sf
 .bss.__stdio_exit_handler
                0x200002fc        0x4 i:/mcu/gnu_tools_for_arm/11.3_rel1/bin/../lib/gcc/arm-none-eabi/11.3.1/thumb/v7-m/nofp\libc_nano.a(libc_a-findfp.o)
                0x200002fc                __stdio_exit_handler
 .bss.errno     0x20000300        0x4 i:/mcu/gnu_tools_for_arm/11.3_rel1/bin/../lib/gcc/arm-none-eabi/11.3.1/thumb/v7-m/nofp\libc_nano.a(libc_a-reent.o)
                0x20000300                errno
 .bss.__lock___malloc_recursive_mutex
                0x20000304        0x1 i:/mcu/gnu_tools_for_arm/11.3_rel1/bin/../lib/gcc/arm-none-eabi/11.3.1/thumb/v7-m/nofp\libc_nano.a(libc_a-lock.o)
                0x20000304                __lock___malloc_recursive_mutex
 .bss.__lock___sfp_recursive_mutex
                0x20000305        0x1 i:/mcu/gnu_tools_for_arm/11.3_rel1/bin/../lib/gcc/arm-none-eabi/11.3.1/thumb/v7-m/nofp\libc_nano.a(libc_a-lock.o)
                0x20000305                __lock___sfp_recursive_mutex
 *fill*         0x20000306        0x2 
 .bss.__malloc_free_list
                0x20000308        0x4 i:/mcu/gnu_tools_for_arm/11.3_rel1/bin/../lib/gcc/arm-none-eabi/11.3.1/thumb/v7-m/nofp\libc_nano.a(libc_a-mallocr.o)
                0x20000308                __malloc_free_list
 .bss.__malloc_sbrk_start
                0x2000030c        0x4 i:/mcu/gnu_tools_for_arm/11.3_rel1/bin/../lib/gcc/arm-none-eabi/11.3.1/thumb/v7-m/nofp\libc_nano.a(libc_a-mallocr.o)
                0x2000030c                __malloc_sbrk_start
 .bss.heap_end.0
                0x20000310        0x4 i:/mcu/gnu_tools_for_arm/11.3_rel1/bin/../lib/gcc/arm-none-eabi/11.3.1/thumb/v7-m/nofp\libnosys.a(sbrk.o)
 *(COMMON)
                0x20000314                . = ALIGN (0x4)
                0x20000314                _ebss = .
                0x20000314                __bss_end__ = _ebss

._user_heap_stack
                0x20000314      0x604 load address 0x08006df8
                0x20000318                . = ALIGN (0x8)
 *fill*         0x20000314        0x4 
                0x20000318                PROVIDE (end = .)
                [!provide]                PROVIDE (_end = .)
                0x20000518                . = (. + _Min_Heap_Size)
 *fill*         0x20000318      0x200 
                0x20000918                . = (. + _Min_Stack_Size)
 *fill*         0x20000518      0x400 
                0x20000918                . = ALIGN (0x8)

/DISCARD/
 libc.a(*)
 libm.a(*)
 libgcc.a(*)

.ARM.attributes
                0x00000000       0x29
 *(.ARM.attributes)
 .ARM.attributes
                0x00000000       0x1d i:/mcu/gnu_tools_for_arm/11.3_rel1/bin/../lib/gcc/arm-none-eabi/11.3.1/thumb/v7-m/nofp/crti.o
 .ARM.attributes
                0x0000001d       0x2d i:/mcu/gnu_tools_for_arm/11.3_rel1/bin/../lib/gcc/arm-none-eabi/11.3.1/thumb/v7-m/nofp/crtbegin.o
 .ARM.attributes
                0x0000004a       0x2d build/main.o
 .ARM.attributes
                0x00000077       0x2d build/gpio.o
 .ARM.attributes
                0x000000a4       0x2d build/i2c.o
 .ARM.attributes
                0x000000d1       0x2d build/usart.o
 .ARM.attributes
                0x000000fe       0x2d build/stm32f1xx_it.o
 .ARM.attributes
                0x0000012b       0x2d build/stm32f1xx_hal_msp.o
 .ARM.attributes
                0x00000158       0x2d build/stm32f1xx_hal_i2c.o
 .ARM.attributes
                0x00000185       0x2d build/stm32f1xx_hal.o
 .ARM.attributes
                0x000001b2       0x2d build/stm32f1xx_hal_rcc.o
 .ARM.attributes
                0x000001df       0x2d build/stm32f1xx_hal_gpio.o
 .ARM.attributes
                0x0000020c       0x2d build/stm32f1xx_hal_cortex.o
 .ARM.attributes
                0x00000239       0x2d build/stm32f1xx_hal_uart.o
 .ARM.attributes
                0x00000266       0x2d build/system_stm32f1xx.o
 .ARM.attributes
                0x00000293       0x2d build/Waveshare_AS7341.o
 .ARM.attributes
                0x000002c0       0x2d build/DEV_Config.o
 .ARM.attributes
                0x000002ed       0x2d build/ColorTemperature.o
 .ARM.attributes
                0x0000031a       0x2d build/Getdata_test.o
 .ARM.attributes
                0x00000347       0x2d build/Ra_calculate.o
 .ARM.attributes
                0x00000374       0x2d build/retarget.o
 .ARM.attributes
                0x000003a1       0x21 build/startup_stm32f103xe.o
 .ARM.attributes
                0x000003c2       0x2d i:/mcu/gnu_tools_for_arm/11.3_rel1/bin/../lib/gcc/arm-none-eabi/11.3.1/thumb/v7-m/nofp\libc_nano.a(libc_a-findfp.o)
 .ARM.attributes
                0x000003ef       0x2d i:/mcu/gnu_tools_for_arm/11.3_rel1/bin/../lib/gcc/arm-none-eabi/11.3.1/thumb/v7-m/nofp\libc_nano.a(libc_a-fwalk.o)
 .ARM.attributes
                0x0000041c       0x2d i:/mcu/gnu_tools_for_arm/11.3_rel1/bin/../lib/gcc/arm-none-eabi/11.3.1/thumb/v7-m/nofp\libc_nano.a(libc_a-printf.o)
 .ARM.attributes
                0x00000449       0x2d i:/mcu/gnu_tools_for_arm/11.3_rel1/bin/../lib/gcc/arm-none-eabi/11.3.1/thumb/v7-m/nofp\libc_nano.a(libc_a-puts.o)
 .ARM.attributes
                0x00000476       0x2d i:/mcu/gnu_tools_for_arm/11.3_rel1/bin/../lib/gcc/arm-none-eabi/11.3.1/thumb/v7-m/nofp\libc_nano.a(libc_a-setvbuf.o)
 .ARM.attributes
                0x000004a3       0x2d i:/mcu/gnu_tools_for_arm/11.3_rel1/bin/../lib/gcc/arm-none-eabi/11.3.1/thumb/v7-m/nofp\libc_nano.a(libc_a-stdio.o)
 .ARM.attributes
                0x000004d0       0x2d i:/mcu/gnu_tools_for_arm/11.3_rel1/bin/../lib/gcc/arm-none-eabi/11.3.1/thumb/v7-m/nofp\libc_nano.a(libc_a-wbuf.o)
 .ARM.attributes
                0x000004fd       0x2d i:/mcu/gnu_tools_for_arm/11.3_rel1/bin/../lib/gcc/arm-none-eabi/11.3.1/thumb/v7-m/nofp\libc_nano.a(libc_a-wsetup.o)
 .ARM.attributes
                0x0000052a       0x2d i:/mcu/gnu_tools_for_arm/11.3_rel1/bin/../lib/gcc/arm-none-eabi/11.3.1/thumb/v7-m/nofp\libc_nano.a(libc_a-memset.o)
 .ARM.attributes
                0x00000557       0x2d i:/mcu/gnu_tools_for_arm/11.3_rel1/bin/../lib/gcc/arm-none-eabi/11.3.1/thumb/v7-m/nofp\libc_nano.a(libc_a-closer.o)
 .ARM.attributes
                0x00000584       0x2d i:/mcu/gnu_tools_for_arm/11.3_rel1/bin/../lib/gcc/arm-none-eabi/11.3.1/thumb/v7-m/nofp\libc_nano.a(libc_a-reent.o)
 .ARM.attributes
                0x000005b1       0x2d i:/mcu/gnu_tools_for_arm/11.3_rel1/bin/../lib/gcc/arm-none-eabi/11.3.1/thumb/v7-m/nofp\libc_nano.a(libc_a-impure.o)
 .ARM.attributes
                0x000005de       0x2d i:/mcu/gnu_tools_for_arm/11.3_rel1/bin/../lib/gcc/arm-none-eabi/11.3.1/thumb/v7-m/nofp\libc_nano.a(libc_a-lseekr.o)
 .ARM.attributes
                0x0000060b       0x2d i:/mcu/gnu_tools_for_arm/11.3_rel1/bin/../lib/gcc/arm-none-eabi/11.3.1/thumb/v7-m/nofp\libc_nano.a(libc_a-readr.o)
 .ARM.attributes
                0x00000638       0x2d i:/mcu/gnu_tools_for_arm/11.3_rel1/bin/../lib/gcc/arm-none-eabi/11.3.1/thumb/v7-m/nofp\libc_nano.a(libc_a-writer.o)
 .ARM.attributes
                0x00000665       0x2d i:/mcu/gnu_tools_for_arm/11.3_rel1/bin/../lib/gcc/arm-none-eabi/11.3.1/thumb/v7-m/nofp\libc_nano.a(libc_a-errno.o)
 .ARM.attributes
                0x00000692       0x2d i:/mcu/gnu_tools_for_arm/11.3_rel1/bin/../lib/gcc/arm-none-eabi/11.3.1/thumb/v7-m/nofp\libc_nano.a(libc_a-init.o)
 .ARM.attributes
                0x000006bf       0x2d i:/mcu/gnu_tools_for_arm/11.3_rel1/bin/../lib/gcc/arm-none-eabi/11.3.1/thumb/v7-m/nofp\libc_nano.a(libc_a-lock.o)
 .ARM.attributes
                0x000006ec       0x2d i:/mcu/gnu_tools_for_arm/11.3_rel1/bin/../lib/gcc/arm-none-eabi/11.3.1/thumb/v7-m/nofp\libc_nano.a(libc_a-freer.o)
 .ARM.attributes
                0x00000719       0x2d i:/mcu/gnu_tools_for_arm/11.3_rel1/bin/../lib/gcc/arm-none-eabi/11.3.1/thumb/v7-m/nofp\libc_nano.a(libc_a-malloc.o)
 .ARM.attributes
                0x00000746       0x2d i:/mcu/gnu_tools_for_arm/11.3_rel1/bin/../lib/gcc/arm-none-eabi/11.3.1/thumb/v7-m/nofp\libc_nano.a(libc_a-mallocr.o)
 .ARM.attributes
                0x00000773       0x2d i:/mcu/gnu_tools_for_arm/11.3_rel1/bin/../lib/gcc/arm-none-eabi/11.3.1/thumb/v7-m/nofp\libc_nano.a(libc_a-mlock.o)
 .ARM.attributes
                0x000007a0       0x2d i:/mcu/gnu_tools_for_arm/11.3_rel1/bin/../lib/gcc/arm-none-eabi/11.3.1/thumb/v7-m/nofp\libc_nano.a(libc_a-nano-vfprintf.o)
 .ARM.attributes
                0x000007cd       0x2d i:/mcu/gnu_tools_for_arm/11.3_rel1/bin/../lib/gcc/arm-none-eabi/11.3.1/thumb/v7-m/nofp\libc_nano.a(libc_a-nano-vfprintf_i.o)
 .ARM.attributes
                0x000007fa       0x2d i:/mcu/gnu_tools_for_arm/11.3_rel1/bin/../lib/gcc/arm-none-eabi/11.3.1/thumb/v7-m/nofp\libc_nano.a(libc_a-fflush.o)
 .ARM.attributes
                0x00000827       0x2d i:/mcu/gnu_tools_for_arm/11.3_rel1/bin/../lib/gcc/arm-none-eabi/11.3.1/thumb/v7-m/nofp\libc_nano.a(libc_a-makebuf.o)
 .ARM.attributes
                0x00000854       0x2d i:/mcu/gnu_tools_for_arm/11.3_rel1/bin/../lib/gcc/arm-none-eabi/11.3.1/thumb/v7-m/nofp\libc_nano.a(libc_a-fstatr.o)
 .ARM.attributes
                0x00000881       0x2d i:/mcu/gnu_tools_for_arm/11.3_rel1/bin/../lib/gcc/arm-none-eabi/11.3.1/thumb/v7-m/nofp\libc_nano.a(libc_a-isattyr.o)
 .ARM.attributes
                0x000008ae       0x2d i:/mcu/gnu_tools_for_arm/11.3_rel1/bin/../lib/gcc/arm-none-eabi/11.3.1/thumb/v7-m/nofp\libc_nano.a(libc_a-sbrkr.o)
 .ARM.attributes
                0x000008db       0x2d i:/mcu/gnu_tools_for_arm/11.3_rel1/bin/../lib/gcc/arm-none-eabi/11.3.1/thumb/v7-m/nofp\libc_nano.a(libc_a-memchr-stub.o)
 .ARM.attributes
                0x00000908       0x2d i:/mcu/gnu_tools_for_arm/11.3_rel1/bin/../lib/gcc/arm-none-eabi/11.3.1/thumb/v7-m/nofp\libm.a(libm_a-w_pow.o)
 .ARM.attributes
                0x00000935       0x2d i:/mcu/gnu_tools_for_arm/11.3_rel1/bin/../lib/gcc/arm-none-eabi/11.3.1/thumb/v7-m/nofp\libm.a(libm_a-w_sqrt.o)
 .ARM.attributes
                0x00000962       0x2d i:/mcu/gnu_tools_for_arm/11.3_rel1/bin/../lib/gcc/arm-none-eabi/11.3.1/thumb/v7-m/nofp\libm.a(libm_a-s_finite.o)
 .ARM.attributes
                0x0000098f       0x2d i:/mcu/gnu_tools_for_arm/11.3_rel1/bin/../lib/gcc/arm-none-eabi/11.3.1/thumb/v7-m/nofp\libm.a(libm_a-e_sqrt.o)
 .ARM.attributes
                0x000009bc       0x2d i:/mcu/gnu_tools_for_arm/11.3_rel1/bin/../lib/gcc/arm-none-eabi/11.3.1/thumb/v7-m/nofp\libm.a(libm_a-e_pow.o)
 .ARM.attributes
                0x000009e9       0x2d i:/mcu/gnu_tools_for_arm/11.3_rel1/bin/../lib/gcc/arm-none-eabi/11.3.1/thumb/v7-m/nofp\libm.a(libm_a-s_fabs.o)
 .ARM.attributes
                0x00000a16       0x2d i:/mcu/gnu_tools_for_arm/11.3_rel1/bin/../lib/gcc/arm-none-eabi/11.3.1/thumb/v7-m/nofp\libm.a(libm_a-s_scalbn.o)
 .ARM.attributes
                0x00000a43       0x2d i:/mcu/gnu_tools_for_arm/11.3_rel1/bin/../lib/gcc/arm-none-eabi/11.3.1/thumb/v7-m/nofp\libm.a(libm_a-math_err.o)
 .ARM.attributes
                0x00000a70       0x2d i:/mcu/gnu_tools_for_arm/11.3_rel1/bin/../lib/gcc/arm-none-eabi/11.3.1/thumb/v7-m/nofp\libnosys.a(sbrk.o)
 .ARM.attributes
                0x00000a9d       0x1d i:/mcu/gnu_tools_for_arm/11.3_rel1/bin/../lib/gcc/arm-none-eabi/11.3.1/thumb/v7-m/nofp\libgcc.a(_arm_addsubdf3.o)
 .ARM.attributes
                0x00000aba       0x1d i:/mcu/gnu_tools_for_arm/11.3_rel1/bin/../lib/gcc/arm-none-eabi/11.3.1/thumb/v7-m/nofp\libgcc.a(_arm_muldivdf3.o)
 .ARM.attributes
                0x00000ad7       0x1d i:/mcu/gnu_tools_for_arm/11.3_rel1/bin/../lib/gcc/arm-none-eabi/11.3.1/thumb/v7-m/nofp\libgcc.a(_arm_cmpdf2.o)
 .ARM.attributes
                0x00000af4       0x1d i:/mcu/gnu_tools_for_arm/11.3_rel1/bin/../lib/gcc/arm-none-eabi/11.3.1/thumb/v7-m/nofp\libgcc.a(_arm_unorddf2.o)
 .ARM.attributes
                0x00000b11       0x1d i:/mcu/gnu_tools_for_arm/11.3_rel1/bin/../lib/gcc/arm-none-eabi/11.3.1/thumb/v7-m/nofp\libgcc.a(_arm_truncdfsf2.o)
 .ARM.attributes
                0x00000b2e       0x1d i:/mcu/gnu_tools_for_arm/11.3_rel1/bin/../lib/gcc/arm-none-eabi/11.3.1/thumb/v7-m/nofp\libgcc.a(_arm_addsubsf3.o)
 .ARM.attributes
                0x00000b4b       0x1d i:/mcu/gnu_tools_for_arm/11.3_rel1/bin/../lib/gcc/arm-none-eabi/11.3.1/thumb/v7-m/nofp\libgcc.a(_arm_muldivsf3.o)
 .ARM.attributes
                0x00000b68       0x1d i:/mcu/gnu_tools_for_arm/11.3_rel1/bin/../lib/gcc/arm-none-eabi/11.3.1/thumb/v7-m/nofp\libgcc.a(_arm_cmpsf2.o)
 .ARM.attributes
                0x00000b85       0x1d i:/mcu/gnu_tools_for_arm/11.3_rel1/bin/../lib/gcc/arm-none-eabi/11.3.1/thumb/v7-m/nofp\libgcc.a(_arm_fixunssfsi.o)
 .ARM.attributes
                0x00000ba2       0x2d i:/mcu/gnu_tools_for_arm/11.3_rel1/bin/../lib/gcc/arm-none-eabi/11.3.1/thumb/v7-m/nofp/crtend.o
 .ARM.attributes
                0x00000bcf       0x1d i:/mcu/gnu_tools_for_arm/11.3_rel1/bin/../lib/gcc/arm-none-eabi/11.3.1/thumb/v7-m/nofp/crtn.o
OUTPUT(build/LightTest.elf elf32-littlearm)
LOAD linker stubs
LOAD i:/mcu/gnu_tools_for_arm/11.3_rel1/bin/../lib/gcc/arm-none-eabi/11.3.1/thumb/v7-m/nofp\libc.a
LOAD i:/mcu/gnu_tools_for_arm/11.3_rel1/bin/../lib/gcc/arm-none-eabi/11.3.1/thumb/v7-m/nofp\libm.a
LOAD i:/mcu/gnu_tools_for_arm/11.3_rel1/bin/../lib/gcc/arm-none-eabi/11.3.1/thumb/v7-m/nofp\libgcc.a

.comment        0x00000000       0x33
 .comment       0x00000000       0x33 i:/mcu/gnu_tools_for_arm/11.3_rel1/bin/../lib/gcc/arm-none-eabi/11.3.1/thumb/v7-m/nofp/crtbegin.o
                                 0x34 (size before relaxing)
 .comment       0x00000033       0x34 build/main.o
 .comment       0x00000033       0x34 build/gpio.o
 .comment       0x00000033       0x34 build/i2c.o
 .comment       0x00000033       0x34 build/usart.o
 .comment       0x00000033       0x34 build/stm32f1xx_it.o
 .comment       0x00000033       0x34 build/stm32f1xx_hal_msp.o
 .comment       0x00000033       0x34 build/stm32f1xx_hal_i2c.o
 .comment       0x00000033       0x34 build/stm32f1xx_hal.o
 .comment       0x00000033       0x34 build/stm32f1xx_hal_rcc.o
 .comment       0x00000033       0x34 build/stm32f1xx_hal_gpio.o
 .comment       0x00000033       0x34 build/stm32f1xx_hal_cortex.o
 .comment       0x00000033       0x34 build/stm32f1xx_hal_uart.o
 .comment       0x00000033       0x34 build/system_stm32f1xx.o
 .comment       0x00000033       0x34 build/Waveshare_AS7341.o
 .comment       0x00000033       0x34 build/DEV_Config.o
 .comment       0x00000033       0x34 build/ColorTemperature.o
 .comment       0x00000033       0x34 build/Getdata_test.o
 .comment       0x00000033       0x34 build/Ra_calculate.o
 .comment       0x00000033       0x34 build/retarget.o
 .comment       0x00000033       0x34 i:/mcu/gnu_tools_for_arm/11.3_rel1/bin/../lib/gcc/arm-none-eabi/11.3.1/thumb/v7-m/nofp\libc_nano.a(libc_a-findfp.o)
 .comment       0x00000033       0x34 i:/mcu/gnu_tools_for_arm/11.3_rel1/bin/../lib/gcc/arm-none-eabi/11.3.1/thumb/v7-m/nofp\libc_nano.a(libc_a-fwalk.o)
 .comment       0x00000033       0x34 i:/mcu/gnu_tools_for_arm/11.3_rel1/bin/../lib/gcc/arm-none-eabi/11.3.1/thumb/v7-m/nofp\libc_nano.a(libc_a-printf.o)
 .comment       0x00000033       0x34 i:/mcu/gnu_tools_for_arm/11.3_rel1/bin/../lib/gcc/arm-none-eabi/11.3.1/thumb/v7-m/nofp\libc_nano.a(libc_a-puts.o)
 .comment       0x00000033       0x34 i:/mcu/gnu_tools_for_arm/11.3_rel1/bin/../lib/gcc/arm-none-eabi/11.3.1/thumb/v7-m/nofp\libc_nano.a(libc_a-setvbuf.o)
 .comment       0x00000033       0x34 i:/mcu/gnu_tools_for_arm/11.3_rel1/bin/../lib/gcc/arm-none-eabi/11.3.1/thumb/v7-m/nofp\libc_nano.a(libc_a-stdio.o)
 .comment       0x00000033       0x34 i:/mcu/gnu_tools_for_arm/11.3_rel1/bin/../lib/gcc/arm-none-eabi/11.3.1/thumb/v7-m/nofp\libc_nano.a(libc_a-wbuf.o)
 .comment       0x00000033       0x34 i:/mcu/gnu_tools_for_arm/11.3_rel1/bin/../lib/gcc/arm-none-eabi/11.3.1/thumb/v7-m/nofp\libc_nano.a(libc_a-wsetup.o)
 .comment       0x00000033       0x34 i:/mcu/gnu_tools_for_arm/11.3_rel1/bin/../lib/gcc/arm-none-eabi/11.3.1/thumb/v7-m/nofp\libc_nano.a(libc_a-memset.o)
 .comment       0x00000033       0x34 i:/mcu/gnu_tools_for_arm/11.3_rel1/bin/../lib/gcc/arm-none-eabi/11.3.1/thumb/v7-m/nofp\libc_nano.a(libc_a-closer.o)
 .comment       0x00000033       0x34 i:/mcu/gnu_tools_for_arm/11.3_rel1/bin/../lib/gcc/arm-none-eabi/11.3.1/thumb/v7-m/nofp\libc_nano.a(libc_a-reent.o)
 .comment       0x00000033       0x34 i:/mcu/gnu_tools_for_arm/11.3_rel1/bin/../lib/gcc/arm-none-eabi/11.3.1/thumb/v7-m/nofp\libc_nano.a(libc_a-impure.o)
 .comment       0x00000033       0x34 i:/mcu/gnu_tools_for_arm/11.3_rel1/bin/../lib/gcc/arm-none-eabi/11.3.1/thumb/v7-m/nofp\libc_nano.a(libc_a-lseekr.o)
 .comment       0x00000033       0x34 i:/mcu/gnu_tools_for_arm/11.3_rel1/bin/../lib/gcc/arm-none-eabi/11.3.1/thumb/v7-m/nofp\libc_nano.a(libc_a-readr.o)
 .comment       0x00000033       0x34 i:/mcu/gnu_tools_for_arm/11.3_rel1/bin/../lib/gcc/arm-none-eabi/11.3.1/thumb/v7-m/nofp\libc_nano.a(libc_a-writer.o)
 .comment       0x00000033       0x34 i:/mcu/gnu_tools_for_arm/11.3_rel1/bin/../lib/gcc/arm-none-eabi/11.3.1/thumb/v7-m/nofp\libc_nano.a(libc_a-errno.o)
 .comment       0x00000033       0x34 i:/mcu/gnu_tools_for_arm/11.3_rel1/bin/../lib/gcc/arm-none-eabi/11.3.1/thumb/v7-m/nofp\libc_nano.a(libc_a-init.o)
 .comment       0x00000033       0x34 i:/mcu/gnu_tools_for_arm/11.3_rel1/bin/../lib/gcc/arm-none-eabi/11.3.1/thumb/v7-m/nofp\libc_nano.a(libc_a-lock.o)
 .comment       0x00000033       0x34 i:/mcu/gnu_tools_for_arm/11.3_rel1/bin/../lib/gcc/arm-none-eabi/11.3.1/thumb/v7-m/nofp\libc_nano.a(libc_a-freer.o)
 .comment       0x00000033       0x34 i:/mcu/gnu_tools_for_arm/11.3_rel1/bin/../lib/gcc/arm-none-eabi/11.3.1/thumb/v7-m/nofp\libc_nano.a(libc_a-malloc.o)
 .comment       0x00000033       0x34 i:/mcu/gnu_tools_for_arm/11.3_rel1/bin/../lib/gcc/arm-none-eabi/11.3.1/thumb/v7-m/nofp\libc_nano.a(libc_a-mallocr.o)
 .comment       0x00000033       0x34 i:/mcu/gnu_tools_for_arm/11.3_rel1/bin/../lib/gcc/arm-none-eabi/11.3.1/thumb/v7-m/nofp\libc_nano.a(libc_a-mlock.o)
 .comment       0x00000033       0x34 i:/mcu/gnu_tools_for_arm/11.3_rel1/bin/../lib/gcc/arm-none-eabi/11.3.1/thumb/v7-m/nofp\libc_nano.a(libc_a-nano-vfprintf.o)
 .comment       0x00000033       0x34 i:/mcu/gnu_tools_for_arm/11.3_rel1/bin/../lib/gcc/arm-none-eabi/11.3.1/thumb/v7-m/nofp\libc_nano.a(libc_a-nano-vfprintf_i.o)
 .comment       0x00000033       0x34 i:/mcu/gnu_tools_for_arm/11.3_rel1/bin/../lib/gcc/arm-none-eabi/11.3.1/thumb/v7-m/nofp\libc_nano.a(libc_a-fflush.o)
 .comment       0x00000033       0x34 i:/mcu/gnu_tools_for_arm/11.3_rel1/bin/../lib/gcc/arm-none-eabi/11.3.1/thumb/v7-m/nofp\libc_nano.a(libc_a-makebuf.o)
 .comment       0x00000033       0x34 i:/mcu/gnu_tools_for_arm/11.3_rel1/bin/../lib/gcc/arm-none-eabi/11.3.1/thumb/v7-m/nofp\libc_nano.a(libc_a-fstatr.o)
 .comment       0x00000033       0x34 i:/mcu/gnu_tools_for_arm/11.3_rel1/bin/../lib/gcc/arm-none-eabi/11.3.1/thumb/v7-m/nofp\libc_nano.a(libc_a-isattyr.o)
 .comment       0x00000033       0x34 i:/mcu/gnu_tools_for_arm/11.3_rel1/bin/../lib/gcc/arm-none-eabi/11.3.1/thumb/v7-m/nofp\libc_nano.a(libc_a-sbrkr.o)
 .comment       0x00000033       0x34 i:/mcu/gnu_tools_for_arm/11.3_rel1/bin/../lib/gcc/arm-none-eabi/11.3.1/thumb/v7-m/nofp\libc_nano.a(libc_a-memchr-stub.o)
 .comment       0x00000033       0x34 i:/mcu/gnu_tools_for_arm/11.3_rel1/bin/../lib/gcc/arm-none-eabi/11.3.1/thumb/v7-m/nofp\libm.a(libm_a-w_pow.o)
 .comment       0x00000033       0x34 i:/mcu/gnu_tools_for_arm/11.3_rel1/bin/../lib/gcc/arm-none-eabi/11.3.1/thumb/v7-m/nofp\libm.a(libm_a-w_sqrt.o)
 .comment       0x00000033       0x34 i:/mcu/gnu_tools_for_arm/11.3_rel1/bin/../lib/gcc/arm-none-eabi/11.3.1/thumb/v7-m/nofp\libm.a(libm_a-s_finite.o)
 .comment       0x00000033       0x34 i:/mcu/gnu_tools_for_arm/11.3_rel1/bin/../lib/gcc/arm-none-eabi/11.3.1/thumb/v7-m/nofp\libm.a(libm_a-e_sqrt.o)
 .comment       0x00000033       0x34 i:/mcu/gnu_tools_for_arm/11.3_rel1/bin/../lib/gcc/arm-none-eabi/11.3.1/thumb/v7-m/nofp\libm.a(libm_a-e_pow.o)
 .comment       0x00000033       0x34 i:/mcu/gnu_tools_for_arm/11.3_rel1/bin/../lib/gcc/arm-none-eabi/11.3.1/thumb/v7-m/nofp\libm.a(libm_a-s_fabs.o)
 .comment       0x00000033       0x34 i:/mcu/gnu_tools_for_arm/11.3_rel1/bin/../lib/gcc/arm-none-eabi/11.3.1/thumb/v7-m/nofp\libm.a(libm_a-s_scalbn.o)
 .comment       0x00000033       0x34 i:/mcu/gnu_tools_for_arm/11.3_rel1/bin/../lib/gcc/arm-none-eabi/11.3.1/thumb/v7-m/nofp\libm.a(libm_a-math_err.o)
 .comment       0x00000033       0x34 i:/mcu/gnu_tools_for_arm/11.3_rel1/bin/../lib/gcc/arm-none-eabi/11.3.1/thumb/v7-m/nofp\libnosys.a(sbrk.o)
 .comment       0x00000033       0x34 i:/mcu/gnu_tools_for_arm/11.3_rel1/bin/../lib/gcc/arm-none-eabi/11.3.1/thumb/v7-m/nofp/crtend.o

.debug_info     0x00000000    0x21755
 .debug_info    0x00000000      0xbfd build/main.o
 .debug_info    0x00000bfd      0x35e build/gpio.o
 .debug_info    0x00000f5b      0xa76 build/i2c.o
 .debug_info    0x000019d1      0x90f build/usart.o
 .debug_info    0x000022e0      0x158 build/stm32f1xx_it.o
 .debug_info    0x00002438      0x238 build/stm32f1xx_hal_msp.o
 .debug_info    0x00002670     0x3c84 build/stm32f1xx_hal_i2c.o
 .debug_info    0x000062f4      0x8e6 build/stm32f1xx_hal.o
 .debug_info    0x00006bda      0xb0c build/stm32f1xx_hal_rcc.o
 .debug_info    0x000076e6      0x6d7 build/stm32f1xx_hal_gpio.o
 .debug_info    0x00007dbd      0xe99 build/stm32f1xx_hal_cortex.o
 .debug_info    0x00008c56     0x1e4c build/stm32f1xx_hal_uart.o
 .debug_info    0x0000aaa2      0x26e build/system_stm32f1xx.o
 .debug_info    0x0000ad10     0x175a build/Waveshare_AS7341.o
 .debug_info    0x0000c46a      0xb39 build/DEV_Config.o
 .debug_info    0x0000cfa3      0x655 build/ColorTemperature.o
 .debug_info    0x0000d5f8      0x5db build/Getdata_test.o
 .debug_info    0x0000dbd3     0x177c build/Ra_calculate.o
 .debug_info    0x0000f34f     0x12c6 build/retarget.o
 .debug_info    0x00010615       0x22 build/startup_stm32f103xe.o
 .debug_info    0x00010637      0xf8f i:/mcu/gnu_tools_for_arm/11.3_rel1/bin/../lib/gcc/arm-none-eabi/11.3.1/thumb/v7-m/nofp\libc_nano.a(libc_a-findfp.o)
 .debug_info    0x000115c6      0x7d1 i:/mcu/gnu_tools_for_arm/11.3_rel1/bin/../lib/gcc/arm-none-eabi/11.3.1/thumb/v7-m/nofp\libc_nano.a(libc_a-fwalk.o)
 .debug_info    0x00011d97      0x83a i:/mcu/gnu_tools_for_arm/11.3_rel1/bin/../lib/gcc/arm-none-eabi/11.3.1/thumb/v7-m/nofp\libc_nano.a(libc_a-printf.o)
 .debug_info    0x000125d1      0x949 i:/mcu/gnu_tools_for_arm/11.3_rel1/bin/../lib/gcc/arm-none-eabi/11.3.1/thumb/v7-m/nofp\libc_nano.a(libc_a-puts.o)
 .debug_info    0x00012f1a      0x93b i:/mcu/gnu_tools_for_arm/11.3_rel1/bin/../lib/gcc/arm-none-eabi/11.3.1/thumb/v7-m/nofp\libc_nano.a(libc_a-setvbuf.o)
 .debug_info    0x00013855      0xa53 i:/mcu/gnu_tools_for_arm/11.3_rel1/bin/../lib/gcc/arm-none-eabi/11.3.1/thumb/v7-m/nofp\libc_nano.a(libc_a-stdio.o)
 .debug_info    0x000142a8      0x867 i:/mcu/gnu_tools_for_arm/11.3_rel1/bin/../lib/gcc/arm-none-eabi/11.3.1/thumb/v7-m/nofp\libc_nano.a(libc_a-wbuf.o)
 .debug_info    0x00014b0f      0x7ba i:/mcu/gnu_tools_for_arm/11.3_rel1/bin/../lib/gcc/arm-none-eabi/11.3.1/thumb/v7-m/nofp\libc_nano.a(libc_a-wsetup.o)
 .debug_info    0x000152c9       0xe0 i:/mcu/gnu_tools_for_arm/11.3_rel1/bin/../lib/gcc/arm-none-eabi/11.3.1/thumb/v7-m/nofp\libc_nano.a(libc_a-memset.o)
 .debug_info    0x000153a9      0x755 i:/mcu/gnu_tools_for_arm/11.3_rel1/bin/../lib/gcc/arm-none-eabi/11.3.1/thumb/v7-m/nofp\libc_nano.a(libc_a-closer.o)
 .debug_info    0x00015afe      0x858 i:/mcu/gnu_tools_for_arm/11.3_rel1/bin/../lib/gcc/arm-none-eabi/11.3.1/thumb/v7-m/nofp\libc_nano.a(libc_a-reent.o)
 .debug_info    0x00016356      0x714 i:/mcu/gnu_tools_for_arm/11.3_rel1/bin/../lib/gcc/arm-none-eabi/11.3.1/thumb/v7-m/nofp\libc_nano.a(libc_a-impure.o)
 .debug_info    0x00016a6a      0x795 i:/mcu/gnu_tools_for_arm/11.3_rel1/bin/../lib/gcc/arm-none-eabi/11.3.1/thumb/v7-m/nofp\libc_nano.a(libc_a-lseekr.o)
 .debug_info    0x000171ff      0x7ac i:/mcu/gnu_tools_for_arm/11.3_rel1/bin/../lib/gcc/arm-none-eabi/11.3.1/thumb/v7-m/nofp\libc_nano.a(libc_a-readr.o)
 .debug_info    0x000179ab      0x7b2 i:/mcu/gnu_tools_for_arm/11.3_rel1/bin/../lib/gcc/arm-none-eabi/11.3.1/thumb/v7-m/nofp\libc_nano.a(libc_a-writer.o)
 .debug_info    0x0001815d      0x6fa i:/mcu/gnu_tools_for_arm/11.3_rel1/bin/../lib/gcc/arm-none-eabi/11.3.1/thumb/v7-m/nofp\libc_nano.a(libc_a-errno.o)
 .debug_info    0x00018857      0x10b i:/mcu/gnu_tools_for_arm/11.3_rel1/bin/../lib/gcc/arm-none-eabi/11.3.1/thumb/v7-m/nofp\libc_nano.a(libc_a-init.o)
 .debug_info    0x00018962      0x20a i:/mcu/gnu_tools_for_arm/11.3_rel1/bin/../lib/gcc/arm-none-eabi/11.3.1/thumb/v7-m/nofp\libc_nano.a(libc_a-lock.o)
 .debug_info    0x00018b6c      0x84a i:/mcu/gnu_tools_for_arm/11.3_rel1/bin/../lib/gcc/arm-none-eabi/11.3.1/thumb/v7-m/nofp\libc_nano.a(libc_a-freer.o)
 .debug_info    0x000193b6      0x793 i:/mcu/gnu_tools_for_arm/11.3_rel1/bin/../lib/gcc/arm-none-eabi/11.3.1/thumb/v7-m/nofp\libc_nano.a(libc_a-malloc.o)
 .debug_info    0x00019b49      0x9bb i:/mcu/gnu_tools_for_arm/11.3_rel1/bin/../lib/gcc/arm-none-eabi/11.3.1/thumb/v7-m/nofp\libc_nano.a(libc_a-mallocr.o)
 .debug_info    0x0001a504      0x76a i:/mcu/gnu_tools_for_arm/11.3_rel1/bin/../lib/gcc/arm-none-eabi/11.3.1/thumb/v7-m/nofp\libc_nano.a(libc_a-mlock.o)
 .debug_info    0x0001ac6e     0x1079 i:/mcu/gnu_tools_for_arm/11.3_rel1/bin/../lib/gcc/arm-none-eabi/11.3.1/thumb/v7-m/nofp\libc_nano.a(libc_a-nano-vfprintf.o)
 .debug_info    0x0001bce7      0xddf i:/mcu/gnu_tools_for_arm/11.3_rel1/bin/../lib/gcc/arm-none-eabi/11.3.1/thumb/v7-m/nofp\libc_nano.a(libc_a-nano-vfprintf_i.o)
 .debug_info    0x0001cac6      0x9ee i:/mcu/gnu_tools_for_arm/11.3_rel1/bin/../lib/gcc/arm-none-eabi/11.3.1/thumb/v7-m/nofp\libc_nano.a(libc_a-fflush.o)
 .debug_info    0x0001d4b4      0xb18 i:/mcu/gnu_tools_for_arm/11.3_rel1/bin/../lib/gcc/arm-none-eabi/11.3.1/thumb/v7-m/nofp\libc_nano.a(libc_a-makebuf.o)
 .debug_info    0x0001dfcc      0x974 i:/mcu/gnu_tools_for_arm/11.3_rel1/bin/../lib/gcc/arm-none-eabi/11.3.1/thumb/v7-m/nofp\libc_nano.a(libc_a-fstatr.o)
 .debug_info    0x0001e940      0x755 i:/mcu/gnu_tools_for_arm/11.3_rel1/bin/../lib/gcc/arm-none-eabi/11.3.1/thumb/v7-m/nofp\libc_nano.a(libc_a-isattyr.o)
 .debug_info    0x0001f095      0x77b i:/mcu/gnu_tools_for_arm/11.3_rel1/bin/../lib/gcc/arm-none-eabi/11.3.1/thumb/v7-m/nofp\libc_nano.a(libc_a-sbrkr.o)
 .debug_info    0x0001f810      0x110 i:/mcu/gnu_tools_for_arm/11.3_rel1/bin/../lib/gcc/arm-none-eabi/11.3.1/thumb/v7-m/nofp\libc_nano.a(libc_a-memchr-stub.o)
 .debug_info    0x0001f920      0x1dc i:/mcu/gnu_tools_for_arm/11.3_rel1/bin/../lib/gcc/arm-none-eabi/11.3.1/thumb/v7-m/nofp\libm.a(libm_a-w_pow.o)
 .debug_info    0x0001fafc      0x14b i:/mcu/gnu_tools_for_arm/11.3_rel1/bin/../lib/gcc/arm-none-eabi/11.3.1/thumb/v7-m/nofp\libm.a(libm_a-w_sqrt.o)
 .debug_info    0x0001fc47      0x13c i:/mcu/gnu_tools_for_arm/11.3_rel1/bin/../lib/gcc/arm-none-eabi/11.3.1/thumb/v7-m/nofp\libm.a(libm_a-s_finite.o)
 .debug_info    0x0001fd83      0x2e8 i:/mcu/gnu_tools_for_arm/11.3_rel1/bin/../lib/gcc/arm-none-eabi/11.3.1/thumb/v7-m/nofp\libm.a(libm_a-e_sqrt.o)
 .debug_info    0x0002006b      0xd43 i:/mcu/gnu_tools_for_arm/11.3_rel1/bin/../lib/gcc/arm-none-eabi/11.3.1/thumb/v7-m/nofp\libm.a(libm_a-e_pow.o)
 .debug_info    0x00020dae      0x142 i:/mcu/gnu_tools_for_arm/11.3_rel1/bin/../lib/gcc/arm-none-eabi/11.3.1/thumb/v7-m/nofp\libm.a(libm_a-s_fabs.o)
 .debug_info    0x00020ef0      0x272 i:/mcu/gnu_tools_for_arm/11.3_rel1/bin/../lib/gcc/arm-none-eabi/11.3.1/thumb/v7-m/nofp\libm.a(libm_a-s_scalbn.o)
 .debug_info    0x00021162      0x40a i:/mcu/gnu_tools_for_arm/11.3_rel1/bin/../lib/gcc/arm-none-eabi/11.3.1/thumb/v7-m/nofp\libm.a(libm_a-math_err.o)
 .debug_info    0x0002156c       0x9e i:/mcu/gnu_tools_for_arm/11.3_rel1/bin/../lib/gcc/arm-none-eabi/11.3.1/thumb/v7-m/nofp\libnosys.a(sbrk.o)
 .debug_info    0x0002160a       0x25 i:/mcu/gnu_tools_for_arm/11.3_rel1/bin/../lib/gcc/arm-none-eabi/11.3.1/thumb/v7-m/nofp\libgcc.a(_arm_addsubdf3.o)
 .debug_info    0x0002162f       0x25 i:/mcu/gnu_tools_for_arm/11.3_rel1/bin/../lib/gcc/arm-none-eabi/11.3.1/thumb/v7-m/nofp\libgcc.a(_arm_muldivdf3.o)
 .debug_info    0x00021654       0x25 i:/mcu/gnu_tools_for_arm/11.3_rel1/bin/../lib/gcc/arm-none-eabi/11.3.1/thumb/v7-m/nofp\libgcc.a(_arm_cmpdf2.o)
 .debug_info    0x00021679       0x24 i:/mcu/gnu_tools_for_arm/11.3_rel1/bin/../lib/gcc/arm-none-eabi/11.3.1/thumb/v7-m/nofp\libgcc.a(_arm_unorddf2.o)
 .debug_info    0x0002169d       0x25 i:/mcu/gnu_tools_for_arm/11.3_rel1/bin/../lib/gcc/arm-none-eabi/11.3.1/thumb/v7-m/nofp\libgcc.a(_arm_truncdfsf2.o)
 .debug_info    0x000216c2       0x25 i:/mcu/gnu_tools_for_arm/11.3_rel1/bin/../lib/gcc/arm-none-eabi/11.3.1/thumb/v7-m/nofp\libgcc.a(_arm_addsubsf3.o)
 .debug_info    0x000216e7       0x25 i:/mcu/gnu_tools_for_arm/11.3_rel1/bin/../lib/gcc/arm-none-eabi/11.3.1/thumb/v7-m/nofp\libgcc.a(_arm_muldivsf3.o)
 .debug_info    0x0002170c       0x25 i:/mcu/gnu_tools_for_arm/11.3_rel1/bin/../lib/gcc/arm-none-eabi/11.3.1/thumb/v7-m/nofp\libgcc.a(_arm_cmpsf2.o)
 .debug_info    0x00021731       0x24 i:/mcu/gnu_tools_for_arm/11.3_rel1/bin/../lib/gcc/arm-none-eabi/11.3.1/thumb/v7-m/nofp\libgcc.a(_arm_fixunssfsi.o)

.debug_abbrev   0x00000000     0x6c17
 .debug_abbrev  0x00000000      0x287 build/main.o
 .debug_abbrev  0x00000287      0x14e build/gpio.o
 .debug_abbrev  0x000003d5      0x1f6 build/i2c.o
 .debug_abbrev  0x000005cb      0x1f6 build/usart.o
 .debug_abbrev  0x000007c1       0x80 build/stm32f1xx_it.o
 .debug_abbrev  0x00000841       0xe7 build/stm32f1xx_hal_msp.o
 .debug_abbrev  0x00000928      0x31e build/stm32f1xx_hal_i2c.o
 .debug_abbrev  0x00000c46      0x232 build/stm32f1xx_hal.o
 .debug_abbrev  0x00000e78      0x2b8 build/stm32f1xx_hal_rcc.o
 .debug_abbrev  0x00001130      0x222 build/stm32f1xx_hal_gpio.o
 .debug_abbrev  0x00001352      0x348 build/stm32f1xx_hal_cortex.o
 .debug_abbrev  0x0000169a      0x2df build/stm32f1xx_hal_uart.o
 .debug_abbrev  0x00001979      0x140 build/system_stm32f1xx.o
 .debug_abbrev  0x00001ab9      0x266 build/Waveshare_AS7341.o
 .debug_abbrev  0x00001d1f      0x29e build/DEV_Config.o
 .debug_abbrev  0x00001fbd       0xc7 build/ColorTemperature.o
 .debug_abbrev  0x00002084      0x14a build/Getdata_test.o
 .debug_abbrev  0x000021ce      0x250 build/Ra_calculate.o
 .debug_abbrev  0x0000241e      0x297 build/retarget.o
 .debug_abbrev  0x000026b5       0x12 build/startup_stm32f103xe.o
 .debug_abbrev  0x000026c7      0x40c i:/mcu/gnu_tools_for_arm/11.3_rel1/bin/../lib/gcc/arm-none-eabi/11.3.1/thumb/v7-m/nofp\libc_nano.a(libc_a-findfp.o)
 .debug_abbrev  0x00002ad3      0x19b i:/mcu/gnu_tools_for_arm/11.3_rel1/bin/../lib/gcc/arm-none-eabi/11.3.1/thumb/v7-m/nofp\libc_nano.a(libc_a-fwalk.o)
 .debug_abbrev  0x00002c6e      0x21a i:/mcu/gnu_tools_for_arm/11.3_rel1/bin/../lib/gcc/arm-none-eabi/11.3.1/thumb/v7-m/nofp\libc_nano.a(libc_a-printf.o)
 .debug_abbrev  0x00002e88      0x2a7 i:/mcu/gnu_tools_for_arm/11.3_rel1/bin/../lib/gcc/arm-none-eabi/11.3.1/thumb/v7-m/nofp\libc_nano.a(libc_a-puts.o)
 .debug_abbrev  0x0000312f      0x259 i:/mcu/gnu_tools_for_arm/11.3_rel1/bin/../lib/gcc/arm-none-eabi/11.3.1/thumb/v7-m/nofp\libc_nano.a(libc_a-setvbuf.o)
 .debug_abbrev  0x00003388      0x221 i:/mcu/gnu_tools_for_arm/11.3_rel1/bin/../lib/gcc/arm-none-eabi/11.3.1/thumb/v7-m/nofp\libc_nano.a(libc_a-stdio.o)
 .debug_abbrev  0x000035a9      0x22d i:/mcu/gnu_tools_for_arm/11.3_rel1/bin/../lib/gcc/arm-none-eabi/11.3.1/thumb/v7-m/nofp\libc_nano.a(libc_a-wbuf.o)
 .debug_abbrev  0x000037d6      0x1e2 i:/mcu/gnu_tools_for_arm/11.3_rel1/bin/../lib/gcc/arm-none-eabi/11.3.1/thumb/v7-m/nofp\libc_nano.a(libc_a-wsetup.o)
 .debug_abbrev  0x000039b8       0x9e i:/mcu/gnu_tools_for_arm/11.3_rel1/bin/../lib/gcc/arm-none-eabi/11.3.1/thumb/v7-m/nofp\libc_nano.a(libc_a-memset.o)
 .debug_abbrev  0x00003a56      0x1b0 i:/mcu/gnu_tools_for_arm/11.3_rel1/bin/../lib/gcc/arm-none-eabi/11.3.1/thumb/v7-m/nofp\libc_nano.a(libc_a-closer.o)
 .debug_abbrev  0x00003c06      0x1f8 i:/mcu/gnu_tools_for_arm/11.3_rel1/bin/../lib/gcc/arm-none-eabi/11.3.1/thumb/v7-m/nofp\libc_nano.a(libc_a-reent.o)
 .debug_abbrev  0x00003dfe      0x149 i:/mcu/gnu_tools_for_arm/11.3_rel1/bin/../lib/gcc/arm-none-eabi/11.3.1/thumb/v7-m/nofp\libc_nano.a(libc_a-impure.o)
 .debug_abbrev  0x00003f47      0x1c4 i:/mcu/gnu_tools_for_arm/11.3_rel1/bin/../lib/gcc/arm-none-eabi/11.3.1/thumb/v7-m/nofp\libc_nano.a(libc_a-lseekr.o)
 .debug_abbrev  0x0000410b      0x1b0 i:/mcu/gnu_tools_for_arm/11.3_rel1/bin/../lib/gcc/arm-none-eabi/11.3.1/thumb/v7-m/nofp\libc_nano.a(libc_a-readr.o)
 .debug_abbrev  0x000042bb      0x1b5 i:/mcu/gnu_tools_for_arm/11.3_rel1/bin/../lib/gcc/arm-none-eabi/11.3.1/thumb/v7-m/nofp\libc_nano.a(libc_a-writer.o)
 .debug_abbrev  0x00004470      0x15e i:/mcu/gnu_tools_for_arm/11.3_rel1/bin/../lib/gcc/arm-none-eabi/11.3.1/thumb/v7-m/nofp\libc_nano.a(libc_a-errno.o)
 .debug_abbrev  0x000045ce       0xc9 i:/mcu/gnu_tools_for_arm/11.3_rel1/bin/../lib/gcc/arm-none-eabi/11.3.1/thumb/v7-m/nofp\libc_nano.a(libc_a-init.o)
 .debug_abbrev  0x00004697      0x115 i:/mcu/gnu_tools_for_arm/11.3_rel1/bin/../lib/gcc/arm-none-eabi/11.3.1/thumb/v7-m/nofp\libc_nano.a(libc_a-lock.o)
 .debug_abbrev  0x000047ac      0x236 i:/mcu/gnu_tools_for_arm/11.3_rel1/bin/../lib/gcc/arm-none-eabi/11.3.1/thumb/v7-m/nofp\libc_nano.a(libc_a-freer.o)
 .debug_abbrev  0x000049e2      0x1cf i:/mcu/gnu_tools_for_arm/11.3_rel1/bin/../lib/gcc/arm-none-eabi/11.3.1/thumb/v7-m/nofp\libc_nano.a(libc_a-malloc.o)
 .debug_abbrev  0x00004bb1      0x24a i:/mcu/gnu_tools_for_arm/11.3_rel1/bin/../lib/gcc/arm-none-eabi/11.3.1/thumb/v7-m/nofp\libc_nano.a(libc_a-mallocr.o)
 .debug_abbrev  0x00004dfb      0x1bf i:/mcu/gnu_tools_for_arm/11.3_rel1/bin/../lib/gcc/arm-none-eabi/11.3.1/thumb/v7-m/nofp\libc_nano.a(libc_a-mlock.o)
 .debug_abbrev  0x00004fba      0x317 i:/mcu/gnu_tools_for_arm/11.3_rel1/bin/../lib/gcc/arm-none-eabi/11.3.1/thumb/v7-m/nofp\libc_nano.a(libc_a-nano-vfprintf.o)
 .debug_abbrev  0x000052d1      0x28f i:/mcu/gnu_tools_for_arm/11.3_rel1/bin/../lib/gcc/arm-none-eabi/11.3.1/thumb/v7-m/nofp\libc_nano.a(libc_a-nano-vfprintf_i.o)
 .debug_abbrev  0x00005560      0x2a8 i:/mcu/gnu_tools_for_arm/11.3_rel1/bin/../lib/gcc/arm-none-eabi/11.3.1/thumb/v7-m/nofp\libc_nano.a(libc_a-fflush.o)
 .debug_abbrev  0x00005808      0x28e i:/mcu/gnu_tools_for_arm/11.3_rel1/bin/../lib/gcc/arm-none-eabi/11.3.1/thumb/v7-m/nofp\libc_nano.a(libc_a-makebuf.o)
 .debug_abbrev  0x00005a96      0x1c3 i:/mcu/gnu_tools_for_arm/11.3_rel1/bin/../lib/gcc/arm-none-eabi/11.3.1/thumb/v7-m/nofp\libc_nano.a(libc_a-fstatr.o)
 .debug_abbrev  0x00005c59      0x1b0 i:/mcu/gnu_tools_for_arm/11.3_rel1/bin/../lib/gcc/arm-none-eabi/11.3.1/thumb/v7-m/nofp\libc_nano.a(libc_a-isattyr.o)
 .debug_abbrev  0x00005e09      0x1da i:/mcu/gnu_tools_for_arm/11.3_rel1/bin/../lib/gcc/arm-none-eabi/11.3.1/thumb/v7-m/nofp\libc_nano.a(libc_a-sbrkr.o)
 .debug_abbrev  0x00005fe3       0xb1 i:/mcu/gnu_tools_for_arm/11.3_rel1/bin/../lib/gcc/arm-none-eabi/11.3.1/thumb/v7-m/nofp\libc_nano.a(libc_a-memchr-stub.o)
 .debug_abbrev  0x00006094       0xd7 i:/mcu/gnu_tools_for_arm/11.3_rel1/bin/../lib/gcc/arm-none-eabi/11.3.1/thumb/v7-m/nofp\libm.a(libm_a-w_pow.o)
 .debug_abbrev  0x0000616b       0xd5 i:/mcu/gnu_tools_for_arm/11.3_rel1/bin/../lib/gcc/arm-none-eabi/11.3.1/thumb/v7-m/nofp\libm.a(libm_a-w_sqrt.o)
 .debug_abbrev  0x00006240       0xe0 i:/mcu/gnu_tools_for_arm/11.3_rel1/bin/../lib/gcc/arm-none-eabi/11.3.1/thumb/v7-m/nofp\libm.a(libm_a-s_finite.o)
 .debug_abbrev  0x00006320      0x15e i:/mcu/gnu_tools_for_arm/11.3_rel1/bin/../lib/gcc/arm-none-eabi/11.3.1/thumb/v7-m/nofp\libm.a(libm_a-e_sqrt.o)
 .debug_abbrev  0x0000647e      0x285 i:/mcu/gnu_tools_for_arm/11.3_rel1/bin/../lib/gcc/arm-none-eabi/11.3.1/thumb/v7-m/nofp\libm.a(libm_a-e_pow.o)
 .debug_abbrev  0x00006703       0xd8 i:/mcu/gnu_tools_for_arm/11.3_rel1/bin/../lib/gcc/arm-none-eabi/11.3.1/thumb/v7-m/nofp\libm.a(libm_a-s_fabs.o)
 .debug_abbrev  0x000067db      0x167 i:/mcu/gnu_tools_for_arm/11.3_rel1/bin/../lib/gcc/arm-none-eabi/11.3.1/thumb/v7-m/nofp\libm.a(libm_a-s_scalbn.o)
 .debug_abbrev  0x00006942      0x180 i:/mcu/gnu_tools_for_arm/11.3_rel1/bin/../lib/gcc/arm-none-eabi/11.3.1/thumb/v7-m/nofp\libm.a(libm_a-math_err.o)
 .debug_abbrev  0x00006ac2       0xa1 i:/mcu/gnu_tools_for_arm/11.3_rel1/bin/../lib/gcc/arm-none-eabi/11.3.1/thumb/v7-m/nofp\libnosys.a(sbrk.o)
 .debug_abbrev  0x00006b63       0x14 i:/mcu/gnu_tools_for_arm/11.3_rel1/bin/../lib/gcc/arm-none-eabi/11.3.1/thumb/v7-m/nofp\libgcc.a(_arm_addsubdf3.o)
 .debug_abbrev  0x00006b77       0x14 i:/mcu/gnu_tools_for_arm/11.3_rel1/bin/../lib/gcc/arm-none-eabi/11.3.1/thumb/v7-m/nofp\libgcc.a(_arm_muldivdf3.o)
 .debug_abbrev  0x00006b8b       0x14 i:/mcu/gnu_tools_for_arm/11.3_rel1/bin/../lib/gcc/arm-none-eabi/11.3.1/thumb/v7-m/nofp\libgcc.a(_arm_cmpdf2.o)
 .debug_abbrev  0x00006b9f       0x14 i:/mcu/gnu_tools_for_arm/11.3_rel1/bin/../lib/gcc/arm-none-eabi/11.3.1/thumb/v7-m/nofp\libgcc.a(_arm_unorddf2.o)
 .debug_abbrev  0x00006bb3       0x14 i:/mcu/gnu_tools_for_arm/11.3_rel1/bin/../lib/gcc/arm-none-eabi/11.3.1/thumb/v7-m/nofp\libgcc.a(_arm_truncdfsf2.o)
 .debug_abbrev  0x00006bc7       0x14 i:/mcu/gnu_tools_for_arm/11.3_rel1/bin/../lib/gcc/arm-none-eabi/11.3.1/thumb/v7-m/nofp\libgcc.a(_arm_addsubsf3.o)
 .debug_abbrev  0x00006bdb       0x14 i:/mcu/gnu_tools_for_arm/11.3_rel1/bin/../lib/gcc/arm-none-eabi/11.3.1/thumb/v7-m/nofp\libgcc.a(_arm_muldivsf3.o)
 .debug_abbrev  0x00006bef       0x14 i:/mcu/gnu_tools_for_arm/11.3_rel1/bin/../lib/gcc/arm-none-eabi/11.3.1/thumb/v7-m/nofp\libgcc.a(_arm_cmpsf2.o)
 .debug_abbrev  0x00006c03       0x14 i:/mcu/gnu_tools_for_arm/11.3_rel1/bin/../lib/gcc/arm-none-eabi/11.3.1/thumb/v7-m/nofp\libgcc.a(_arm_fixunssfsi.o)

.debug_loc      0x00000000     0xa9c0
 .debug_loc     0x00000000       0x73 build/main.o
 .debug_loc     0x00000073       0x38 build/gpio.o
 .debug_loc     0x000000ab      0x162 build/i2c.o
 .debug_loc     0x0000020d      0x108 build/usart.o
 .debug_loc     0x00000315       0x20 build/stm32f1xx_it.o
 .debug_loc     0x00000335       0x41 build/stm32f1xx_hal_msp.o
 .debug_loc     0x00000376     0x4dcb build/stm32f1xx_hal_i2c.o
 .debug_loc     0x00005141      0x1e1 build/stm32f1xx_hal.o
 .debug_loc     0x00005322      0x7ee build/stm32f1xx_hal_rcc.o
 .debug_loc     0x00005b10      0x53c build/stm32f1xx_hal_gpio.o
 .debug_loc     0x0000604c      0x80c build/stm32f1xx_hal_cortex.o
 .debug_loc     0x00006858     0x2625 build/stm32f1xx_hal_uart.o
 .debug_loc     0x00008e7d       0xff build/system_stm32f1xx.o
 .debug_loc     0x00008f7c      0xcaf build/Waveshare_AS7341.o
 .debug_loc     0x00009c2b      0x298 build/DEV_Config.o
 .debug_loc     0x00009ec3       0xae build/ColorTemperature.o
 .debug_loc     0x00009f71       0x2c build/Getdata_test.o
 .debug_loc     0x00009f9d      0x5ba build/Ra_calculate.o
 .debug_loc     0x0000a557      0x469 build/retarget.o

.debug_aranges  0x00000000     0x1210
 .debug_aranges
                0x00000000       0x30 build/main.o
 .debug_aranges
                0x00000030       0x20 build/gpio.o
 .debug_aranges
                0x00000050       0x38 build/i2c.o
 .debug_aranges
                0x00000088       0x30 build/usart.o
 .debug_aranges
                0x000000b8       0x60 build/stm32f1xx_it.o
 .debug_aranges
                0x00000118       0x20 build/stm32f1xx_hal_msp.o
 .debug_aranges
                0x00000138      0x2a0 build/stm32f1xx_hal_i2c.o
 .debug_aranges
                0x000003d8       0xe0 build/stm32f1xx_hal.o
 .debug_aranges
                0x000004b8       0x90 build/stm32f1xx_hal_rcc.o
 .debug_aranges
                0x00000548       0x58 build/stm32f1xx_hal_gpio.o
 .debug_aranges
                0x000005a0       0x90 build/stm32f1xx_hal_cortex.o
 .debug_aranges
                0x00000630      0x200 build/stm32f1xx_hal_uart.o
 .debug_aranges
                0x00000830       0x28 build/system_stm32f1xx.o
 .debug_aranges
                0x00000858      0x128 build/Waveshare_AS7341.o
 .debug_aranges
                0x00000980       0x78 build/DEV_Config.o
 .debug_aranges
                0x000009f8       0x28 build/ColorTemperature.o
 .debug_aranges
                0x00000a20       0x20 build/Getdata_test.o
 .debug_aranges
                0x00000a40       0x30 build/Ra_calculate.o
 .debug_aranges
                0x00000a70       0x50 build/retarget.o
 .debug_aranges
                0x00000ac0       0x28 build/startup_stm32f103xe.o
 .debug_aranges
                0x00000ae8       0x78 i:/mcu/gnu_tools_for_arm/11.3_rel1/bin/../lib/gcc/arm-none-eabi/11.3.1/thumb/v7-m/nofp\libc_nano.a(libc_a-findfp.o)
 .debug_aranges
                0x00000b60       0x20 i:/mcu/gnu_tools_for_arm/11.3_rel1/bin/../lib/gcc/arm-none-eabi/11.3.1/thumb/v7-m/nofp\libc_nano.a(libc_a-fwalk.o)
 .debug_aranges
                0x00000b80       0x28 i:/mcu/gnu_tools_for_arm/11.3_rel1/bin/../lib/gcc/arm-none-eabi/11.3.1/thumb/v7-m/nofp\libc_nano.a(libc_a-printf.o)
 .debug_aranges
                0x00000ba8       0x28 i:/mcu/gnu_tools_for_arm/11.3_rel1/bin/../lib/gcc/arm-none-eabi/11.3.1/thumb/v7-m/nofp\libc_nano.a(libc_a-puts.o)
 .debug_aranges
                0x00000bd0       0x20 i:/mcu/gnu_tools_for_arm/11.3_rel1/bin/../lib/gcc/arm-none-eabi/11.3.1/thumb/v7-m/nofp\libc_nano.a(libc_a-setvbuf.o)
 .debug_aranges
                0x00000bf0       0x40 i:/mcu/gnu_tools_for_arm/11.3_rel1/bin/../lib/gcc/arm-none-eabi/11.3.1/thumb/v7-m/nofp\libc_nano.a(libc_a-stdio.o)
 .debug_aranges
                0x00000c30       0x28 i:/mcu/gnu_tools_for_arm/11.3_rel1/bin/../lib/gcc/arm-none-eabi/11.3.1/thumb/v7-m/nofp\libc_nano.a(libc_a-wbuf.o)
 .debug_aranges
                0x00000c58       0x20 i:/mcu/gnu_tools_for_arm/11.3_rel1/bin/../lib/gcc/arm-none-eabi/11.3.1/thumb/v7-m/nofp\libc_nano.a(libc_a-wsetup.o)
 .debug_aranges
                0x00000c78       0x20 i:/mcu/gnu_tools_for_arm/11.3_rel1/bin/../lib/gcc/arm-none-eabi/11.3.1/thumb/v7-m/nofp\libc_nano.a(libc_a-memset.o)
 .debug_aranges
                0x00000c98       0x20 i:/mcu/gnu_tools_for_arm/11.3_rel1/bin/../lib/gcc/arm-none-eabi/11.3.1/thumb/v7-m/nofp\libc_nano.a(libc_a-closer.o)
 .debug_aranges
                0x00000cb8       0x20 i:/mcu/gnu_tools_for_arm/11.3_rel1/bin/../lib/gcc/arm-none-eabi/11.3.1/thumb/v7-m/nofp\libc_nano.a(libc_a-reent.o)
 .debug_aranges
                0x00000cd8       0x18 i:/mcu/gnu_tools_for_arm/11.3_rel1/bin/../lib/gcc/arm-none-eabi/11.3.1/thumb/v7-m/nofp\libc_nano.a(libc_a-impure.o)
 .debug_aranges
                0x00000cf0       0x20 i:/mcu/gnu_tools_for_arm/11.3_rel1/bin/../lib/gcc/arm-none-eabi/11.3.1/thumb/v7-m/nofp\libc_nano.a(libc_a-lseekr.o)
 .debug_aranges
                0x00000d10       0x20 i:/mcu/gnu_tools_for_arm/11.3_rel1/bin/../lib/gcc/arm-none-eabi/11.3.1/thumb/v7-m/nofp\libc_nano.a(libc_a-readr.o)
 .debug_aranges
                0x00000d30       0x20 i:/mcu/gnu_tools_for_arm/11.3_rel1/bin/../lib/gcc/arm-none-eabi/11.3.1/thumb/v7-m/nofp\libc_nano.a(libc_a-writer.o)
 .debug_aranges
                0x00000d50       0x20 i:/mcu/gnu_tools_for_arm/11.3_rel1/bin/../lib/gcc/arm-none-eabi/11.3.1/thumb/v7-m/nofp\libc_nano.a(libc_a-errno.o)
 .debug_aranges
                0x00000d70       0x20 i:/mcu/gnu_tools_for_arm/11.3_rel1/bin/../lib/gcc/arm-none-eabi/11.3.1/thumb/v7-m/nofp\libc_nano.a(libc_a-init.o)
 .debug_aranges
                0x00000d90       0x28 i:/mcu/gnu_tools_for_arm/11.3_rel1/bin/../lib/gcc/arm-none-eabi/11.3.1/thumb/v7-m/nofp\libc_nano.a(libc_a-lock.o)
 .debug_aranges
                0x00000db8       0x20 i:/mcu/gnu_tools_for_arm/11.3_rel1/bin/../lib/gcc/arm-none-eabi/11.3.1/thumb/v7-m/nofp\libc_nano.a(libc_a-freer.o)
 .debug_aranges
                0x00000dd8       0x28 i:/mcu/gnu_tools_for_arm/11.3_rel1/bin/../lib/gcc/arm-none-eabi/11.3.1/thumb/v7-m/nofp\libc_nano.a(libc_a-malloc.o)
 .debug_aranges
                0x00000e00       0x28 i:/mcu/gnu_tools_for_arm/11.3_rel1/bin/../lib/gcc/arm-none-eabi/11.3.1/thumb/v7-m/nofp\libc_nano.a(libc_a-mallocr.o)
 .debug_aranges
                0x00000e28       0x28 i:/mcu/gnu_tools_for_arm/11.3_rel1/bin/../lib/gcc/arm-none-eabi/11.3.1/thumb/v7-m/nofp\libc_nano.a(libc_a-mlock.o)
 .debug_aranges
                0x00000e50       0x40 i:/mcu/gnu_tools_for_arm/11.3_rel1/bin/../lib/gcc/arm-none-eabi/11.3.1/thumb/v7-m/nofp\libc_nano.a(libc_a-nano-vfprintf.o)
 .debug_aranges
                0x00000e90       0x28 i:/mcu/gnu_tools_for_arm/11.3_rel1/bin/../lib/gcc/arm-none-eabi/11.3.1/thumb/v7-m/nofp\libc_nano.a(libc_a-nano-vfprintf_i.o)
 .debug_aranges
                0x00000eb8       0x30 i:/mcu/gnu_tools_for_arm/11.3_rel1/bin/../lib/gcc/arm-none-eabi/11.3.1/thumb/v7-m/nofp\libc_nano.a(libc_a-fflush.o)
 .debug_aranges
                0x00000ee8       0x28 i:/mcu/gnu_tools_for_arm/11.3_rel1/bin/../lib/gcc/arm-none-eabi/11.3.1/thumb/v7-m/nofp\libc_nano.a(libc_a-makebuf.o)
 .debug_aranges
                0x00000f10       0x20 i:/mcu/gnu_tools_for_arm/11.3_rel1/bin/../lib/gcc/arm-none-eabi/11.3.1/thumb/v7-m/nofp\libc_nano.a(libc_a-fstatr.o)
 .debug_aranges
                0x00000f30       0x20 i:/mcu/gnu_tools_for_arm/11.3_rel1/bin/../lib/gcc/arm-none-eabi/11.3.1/thumb/v7-m/nofp\libc_nano.a(libc_a-isattyr.o)
 .debug_aranges
                0x00000f50       0x20 i:/mcu/gnu_tools_for_arm/11.3_rel1/bin/../lib/gcc/arm-none-eabi/11.3.1/thumb/v7-m/nofp\libc_nano.a(libc_a-sbrkr.o)
 .debug_aranges
                0x00000f70       0x20 i:/mcu/gnu_tools_for_arm/11.3_rel1/bin/../lib/gcc/arm-none-eabi/11.3.1/thumb/v7-m/nofp\libc_nano.a(libc_a-memchr-stub.o)
 .debug_aranges
                0x00000f90       0x20 i:/mcu/gnu_tools_for_arm/11.3_rel1/bin/../lib/gcc/arm-none-eabi/11.3.1/thumb/v7-m/nofp\libm.a(libm_a-w_pow.o)
 .debug_aranges
                0x00000fb0       0x20 i:/mcu/gnu_tools_for_arm/11.3_rel1/bin/../lib/gcc/arm-none-eabi/11.3.1/thumb/v7-m/nofp\libm.a(libm_a-w_sqrt.o)
 .debug_aranges
                0x00000fd0       0x20 i:/mcu/gnu_tools_for_arm/11.3_rel1/bin/../lib/gcc/arm-none-eabi/11.3.1/thumb/v7-m/nofp\libm.a(libm_a-s_finite.o)
 .debug_aranges
                0x00000ff0       0x20 i:/mcu/gnu_tools_for_arm/11.3_rel1/bin/../lib/gcc/arm-none-eabi/11.3.1/thumb/v7-m/nofp\libm.a(libm_a-e_sqrt.o)
 .debug_aranges
                0x00001010       0x20 i:/mcu/gnu_tools_for_arm/11.3_rel1/bin/../lib/gcc/arm-none-eabi/11.3.1/thumb/v7-m/nofp\libm.a(libm_a-e_pow.o)
 .debug_aranges
                0x00001030       0x20 i:/mcu/gnu_tools_for_arm/11.3_rel1/bin/../lib/gcc/arm-none-eabi/11.3.1/thumb/v7-m/nofp\libm.a(libm_a-s_fabs.o)
 .debug_aranges
                0x00001050       0x20 i:/mcu/gnu_tools_for_arm/11.3_rel1/bin/../lib/gcc/arm-none-eabi/11.3.1/thumb/v7-m/nofp\libm.a(libm_a-s_scalbn.o)
 .debug_aranges
                0x00001070       0x60 i:/mcu/gnu_tools_for_arm/11.3_rel1/bin/../lib/gcc/arm-none-eabi/11.3.1/thumb/v7-m/nofp\libm.a(libm_a-math_err.o)
 .debug_aranges
                0x000010d0       0x20 i:/mcu/gnu_tools_for_arm/11.3_rel1/bin/../lib/gcc/arm-none-eabi/11.3.1/thumb/v7-m/nofp\libnosys.a(sbrk.o)
 .debug_aranges
                0x000010f0       0x20 i:/mcu/gnu_tools_for_arm/11.3_rel1/bin/../lib/gcc/arm-none-eabi/11.3.1/thumb/v7-m/nofp\libgcc.a(_arm_addsubdf3.o)
 .debug_aranges
                0x00001110       0x20 i:/mcu/gnu_tools_for_arm/11.3_rel1/bin/../lib/gcc/arm-none-eabi/11.3.1/thumb/v7-m/nofp\libgcc.a(_arm_muldivdf3.o)
 .debug_aranges
                0x00001130       0x20 i:/mcu/gnu_tools_for_arm/11.3_rel1/bin/../lib/gcc/arm-none-eabi/11.3.1/thumb/v7-m/nofp\libgcc.a(_arm_cmpdf2.o)
 .debug_aranges
                0x00001150       0x20 i:/mcu/gnu_tools_for_arm/11.3_rel1/bin/../lib/gcc/arm-none-eabi/11.3.1/thumb/v7-m/nofp\libgcc.a(_arm_unorddf2.o)
 .debug_aranges
                0x00001170       0x20 i:/mcu/gnu_tools_for_arm/11.3_rel1/bin/../lib/gcc/arm-none-eabi/11.3.1/thumb/v7-m/nofp\libgcc.a(_arm_truncdfsf2.o)
 .debug_aranges
                0x00001190       0x20 i:/mcu/gnu_tools_for_arm/11.3_rel1/bin/../lib/gcc/arm-none-eabi/11.3.1/thumb/v7-m/nofp\libgcc.a(_arm_addsubsf3.o)
 .debug_aranges
                0x000011b0       0x20 i:/mcu/gnu_tools_for_arm/11.3_rel1/bin/../lib/gcc/arm-none-eabi/11.3.1/thumb/v7-m/nofp\libgcc.a(_arm_muldivsf3.o)
 .debug_aranges
                0x000011d0       0x20 i:/mcu/gnu_tools_for_arm/11.3_rel1/bin/../lib/gcc/arm-none-eabi/11.3.1/thumb/v7-m/nofp\libgcc.a(_arm_cmpsf2.o)
 .debug_aranges
                0x000011f0       0x20 i:/mcu/gnu_tools_for_arm/11.3_rel1/bin/../lib/gcc/arm-none-eabi/11.3.1/thumb/v7-m/nofp\libgcc.a(_arm_fixunssfsi.o)

.debug_ranges   0x00000000      0xac8
 .debug_ranges  0x00000000       0x20 build/main.o
 .debug_ranges  0x00000020       0x10 build/gpio.o
 .debug_ranges  0x00000030       0x28 build/i2c.o
 .debug_ranges  0x00000058       0x20 build/usart.o
 .debug_ranges  0x00000078       0x50 build/stm32f1xx_it.o
 .debug_ranges  0x000000c8       0x10 build/stm32f1xx_hal_msp.o
 .debug_ranges  0x000000d8      0x2a8 build/stm32f1xx_hal_i2c.o
 .debug_ranges  0x00000380       0xd0 build/stm32f1xx_hal.o
 .debug_ranges  0x00000450       0xa0 build/stm32f1xx_hal_rcc.o
 .debug_ranges  0x000004f0       0x48 build/stm32f1xx_hal_gpio.o
 .debug_ranges  0x00000538       0xe0 build/stm32f1xx_hal_cortex.o
 .debug_ranges  0x00000618      0x1f0 build/stm32f1xx_hal_uart.o
 .debug_ranges  0x00000808       0x18 build/system_stm32f1xx.o
 .debug_ranges  0x00000820      0x118 build/Waveshare_AS7341.o
 .debug_ranges  0x00000938       0x68 build/DEV_Config.o
 .debug_ranges  0x000009a0       0x18 build/ColorTemperature.o
 .debug_ranges  0x000009b8       0x10 build/Getdata_test.o
 .debug_ranges  0x000009c8       0xa0 build/Ra_calculate.o
 .debug_ranges  0x00000a68       0x40 build/retarget.o
 .debug_ranges  0x00000aa8       0x20 build/startup_stm32f103xe.o

.debug_line     0x00000000    0x13f20
 .debug_line    0x00000000      0x3ef build/main.o
 .debug_line    0x000003ef      0x196 build/gpio.o
 .debug_line    0x00000585      0x35d build/i2c.o
 .debug_line    0x000008e2      0x2b7 build/usart.o
 .debug_line    0x00000b99      0x177 build/stm32f1xx_it.o
 .debug_line    0x00000d10      0x140 build/stm32f1xx_hal_msp.o
 .debug_line    0x00000e50     0x5456 build/stm32f1xx_hal_i2c.o
 .debug_line    0x000062a6      0x4f2 build/stm32f1xx_hal.o
 .debug_line    0x00006798      0xbe8 build/stm32f1xx_hal_rcc.o
 .debug_line    0x00007380      0x5b3 build/stm32f1xx_hal_gpio.o
 .debug_line    0x00007933      0x5fc build/stm32f1xx_hal_cortex.o
 .debug_line    0x00007f2f     0x207c build/stm32f1xx_hal_uart.o
 .debug_line    0x00009fab      0x20a build/system_stm32f1xx.o
 .debug_line    0x0000a1b5      0x8e3 build/Waveshare_AS7341.o
 .debug_line    0x0000aa98      0x346 build/DEV_Config.o
 .debug_line    0x0000adde      0x262 build/ColorTemperature.o
 .debug_line    0x0000b040      0x232 build/Getdata_test.o
 .debug_line    0x0000b272      0xce9 build/Ra_calculate.o
 .debug_line    0x0000bf5b      0x3f6 build/retarget.o
 .debug_line    0x0000c351       0x75 build/startup_stm32f103xe.o
 .debug_line    0x0000c3c6      0x58b i:/mcu/gnu_tools_for_arm/11.3_rel1/bin/../lib/gcc/arm-none-eabi/11.3.1/thumb/v7-m/nofp\libc_nano.a(libc_a-findfp.o)
 .debug_line    0x0000c951      0x232 i:/mcu/gnu_tools_for_arm/11.3_rel1/bin/../lib/gcc/arm-none-eabi/11.3.1/thumb/v7-m/nofp\libc_nano.a(libc_a-fwalk.o)
 .debug_line    0x0000cb83      0x24d i:/mcu/gnu_tools_for_arm/11.3_rel1/bin/../lib/gcc/arm-none-eabi/11.3.1/thumb/v7-m/nofp\libc_nano.a(libc_a-printf.o)
 .debug_line    0x0000cdd0      0x32b i:/mcu/gnu_tools_for_arm/11.3_rel1/bin/../lib/gcc/arm-none-eabi/11.3.1/thumb/v7-m/nofp\libc_nano.a(libc_a-puts.o)
 .debug_line    0x0000d0fb      0x3c7 i:/mcu/gnu_tools_for_arm/11.3_rel1/bin/../lib/gcc/arm-none-eabi/11.3.1/thumb/v7-m/nofp\libc_nano.a(libc_a-setvbuf.o)
 .debug_line    0x0000d4c2      0x2e9 i:/mcu/gnu_tools_for_arm/11.3_rel1/bin/../lib/gcc/arm-none-eabi/11.3.1/thumb/v7-m/nofp\libc_nano.a(libc_a-stdio.o)
 .debug_line    0x0000d7ab      0x2d2 i:/mcu/gnu_tools_for_arm/11.3_rel1/bin/../lib/gcc/arm-none-eabi/11.3.1/thumb/v7-m/nofp\libc_nano.a(libc_a-wbuf.o)
 .debug_line    0x0000da7d      0x30a i:/mcu/gnu_tools_for_arm/11.3_rel1/bin/../lib/gcc/arm-none-eabi/11.3.1/thumb/v7-m/nofp\libc_nano.a(libc_a-wsetup.o)
 .debug_line    0x0000dd87      0x176 i:/mcu/gnu_tools_for_arm/11.3_rel1/bin/../lib/gcc/arm-none-eabi/11.3.1/thumb/v7-m/nofp\libc_nano.a(libc_a-memset.o)
 .debug_line    0x0000defd      0x214 i:/mcu/gnu_tools_for_arm/11.3_rel1/bin/../lib/gcc/arm-none-eabi/11.3.1/thumb/v7-m/nofp\libc_nano.a(libc_a-closer.o)
 .debug_line    0x0000e111      0x2df i:/mcu/gnu_tools_for_arm/11.3_rel1/bin/../lib/gcc/arm-none-eabi/11.3.1/thumb/v7-m/nofp\libc_nano.a(libc_a-reent.o)
 .debug_line    0x0000e3f0       0xfe i:/mcu/gnu_tools_for_arm/11.3_rel1/bin/../lib/gcc/arm-none-eabi/11.3.1/thumb/v7-m/nofp\libc_nano.a(libc_a-impure.o)
 .debug_line    0x0000e4ee      0x20e i:/mcu/gnu_tools_for_arm/11.3_rel1/bin/../lib/gcc/arm-none-eabi/11.3.1/thumb/v7-m/nofp\libc_nano.a(libc_a-lseekr.o)
 .debug_line    0x0000e6fc      0x20d i:/mcu/gnu_tools_for_arm/11.3_rel1/bin/../lib/gcc/arm-none-eabi/11.3.1/thumb/v7-m/nofp\libc_nano.a(libc_a-readr.o)
 .debug_line    0x0000e909      0x20e i:/mcu/gnu_tools_for_arm/11.3_rel1/bin/../lib/gcc/arm-none-eabi/11.3.1/thumb/v7-m/nofp\libc_nano.a(libc_a-writer.o)
 .debug_line    0x0000eb17      0x17d i:/mcu/gnu_tools_for_arm/11.3_rel1/bin/../lib/gcc/arm-none-eabi/11.3.1/thumb/v7-m/nofp\libc_nano.a(libc_a-errno.o)
 .debug_line    0x0000ec94      0x174 i:/mcu/gnu_tools_for_arm/11.3_rel1/bin/../lib/gcc/arm-none-eabi/11.3.1/thumb/v7-m/nofp\libc_nano.a(libc_a-init.o)
 .debug_line    0x0000ee08      0x105 i:/mcu/gnu_tools_for_arm/11.3_rel1/bin/../lib/gcc/arm-none-eabi/11.3.1/thumb/v7-m/nofp\libc_nano.a(libc_a-lock.o)
 .debug_line    0x0000ef0d      0x30a i:/mcu/gnu_tools_for_arm/11.3_rel1/bin/../lib/gcc/arm-none-eabi/11.3.1/thumb/v7-m/nofp\libc_nano.a(libc_a-freer.o)
 .debug_line    0x0000f217      0x1fa i:/mcu/gnu_tools_for_arm/11.3_rel1/bin/../lib/gcc/arm-none-eabi/11.3.1/thumb/v7-m/nofp\libc_nano.a(libc_a-malloc.o)
 .debug_line    0x0000f411      0x4b6 i:/mcu/gnu_tools_for_arm/11.3_rel1/bin/../lib/gcc/arm-none-eabi/11.3.1/thumb/v7-m/nofp\libc_nano.a(libc_a-mallocr.o)
 .debug_line    0x0000f8c7      0x1e6 i:/mcu/gnu_tools_for_arm/11.3_rel1/bin/../lib/gcc/arm-none-eabi/11.3.1/thumb/v7-m/nofp\libc_nano.a(libc_a-mlock.o)
 .debug_line    0x0000faad      0x704 i:/mcu/gnu_tools_for_arm/11.3_rel1/bin/../lib/gcc/arm-none-eabi/11.3.1/thumb/v7-m/nofp\libc_nano.a(libc_a-nano-vfprintf.o)
 .debug_line    0x000101b1      0x762 i:/mcu/gnu_tools_for_arm/11.3_rel1/bin/../lib/gcc/arm-none-eabi/11.3.1/thumb/v7-m/nofp\libc_nano.a(libc_a-nano-vfprintf_i.o)
 .debug_line    0x00010913      0x47c i:/mcu/gnu_tools_for_arm/11.3_rel1/bin/../lib/gcc/arm-none-eabi/11.3.1/thumb/v7-m/nofp\libc_nano.a(libc_a-fflush.o)
 .debug_line    0x00010d8f      0x3b8 i:/mcu/gnu_tools_for_arm/11.3_rel1/bin/../lib/gcc/arm-none-eabi/11.3.1/thumb/v7-m/nofp\libc_nano.a(libc_a-makebuf.o)
 .debug_line    0x00011147      0x2a9 i:/mcu/gnu_tools_for_arm/11.3_rel1/bin/../lib/gcc/arm-none-eabi/11.3.1/thumb/v7-m/nofp\libc_nano.a(libc_a-fstatr.o)
 .debug_line    0x000113f0      0x215 i:/mcu/gnu_tools_for_arm/11.3_rel1/bin/../lib/gcc/arm-none-eabi/11.3.1/thumb/v7-m/nofp\libc_nano.a(libc_a-isattyr.o)
 .debug_line    0x00011605      0x214 i:/mcu/gnu_tools_for_arm/11.3_rel1/bin/../lib/gcc/arm-none-eabi/11.3.1/thumb/v7-m/nofp\libc_nano.a(libc_a-sbrkr.o)
 .debug_line    0x00011819      0x18d i:/mcu/gnu_tools_for_arm/11.3_rel1/bin/../lib/gcc/arm-none-eabi/11.3.1/thumb/v7-m/nofp\libc_nano.a(libc_a-memchr-stub.o)
 .debug_line    0x000119a6      0x251 i:/mcu/gnu_tools_for_arm/11.3_rel1/bin/../lib/gcc/arm-none-eabi/11.3.1/thumb/v7-m/nofp\libm.a(libm_a-w_pow.o)
 .debug_line    0x00011bf7      0x1e3 i:/mcu/gnu_tools_for_arm/11.3_rel1/bin/../lib/gcc/arm-none-eabi/11.3.1/thumb/v7-m/nofp\libm.a(libm_a-w_sqrt.o)
 .debug_line    0x00011dda      0x17a i:/mcu/gnu_tools_for_arm/11.3_rel1/bin/../lib/gcc/arm-none-eabi/11.3.1/thumb/v7-m/nofp\libm.a(libm_a-s_finite.o)
 .debug_line    0x00011f54      0x474 i:/mcu/gnu_tools_for_arm/11.3_rel1/bin/../lib/gcc/arm-none-eabi/11.3.1/thumb/v7-m/nofp\libm.a(libm_a-e_sqrt.o)
 .debug_line    0x000123c8      0xb2f i:/mcu/gnu_tools_for_arm/11.3_rel1/bin/../lib/gcc/arm-none-eabi/11.3.1/thumb/v7-m/nofp\libm.a(libm_a-e_pow.o)
 .debug_line    0x00012ef7      0x1cd i:/mcu/gnu_tools_for_arm/11.3_rel1/bin/../lib/gcc/arm-none-eabi/11.3.1/thumb/v7-m/nofp\libm.a(libm_a-s_fabs.o)
 .debug_line    0x000130c4      0x288 i:/mcu/gnu_tools_for_arm/11.3_rel1/bin/../lib/gcc/arm-none-eabi/11.3.1/thumb/v7-m/nofp\libm.a(libm_a-s_scalbn.o)
 .debug_line    0x0001334c      0x3ad i:/mcu/gnu_tools_for_arm/11.3_rel1/bin/../lib/gcc/arm-none-eabi/11.3.1/thumb/v7-m/nofp\libm.a(libm_a-math_err.o)
 .debug_line    0x000136f9       0xa3 i:/mcu/gnu_tools_for_arm/11.3_rel1/bin/../lib/gcc/arm-none-eabi/11.3.1/thumb/v7-m/nofp\libnosys.a(sbrk.o)
 .debug_line    0x0001379c      0x16f i:/mcu/gnu_tools_for_arm/11.3_rel1/bin/../lib/gcc/arm-none-eabi/11.3.1/thumb/v7-m/nofp\libgcc.a(_arm_addsubdf3.o)
 .debug_line    0x0001390b      0x184 i:/mcu/gnu_tools_for_arm/11.3_rel1/bin/../lib/gcc/arm-none-eabi/11.3.1/thumb/v7-m/nofp\libgcc.a(_arm_muldivdf3.o)
 .debug_line    0x00013a8f       0xa6 i:/mcu/gnu_tools_for_arm/11.3_rel1/bin/../lib/gcc/arm-none-eabi/11.3.1/thumb/v7-m/nofp\libgcc.a(_arm_cmpdf2.o)
 .debug_line    0x00013b35       0x57 i:/mcu/gnu_tools_for_arm/11.3_rel1/bin/../lib/gcc/arm-none-eabi/11.3.1/thumb/v7-m/nofp\libgcc.a(_arm_unorddf2.o)
 .debug_line    0x00013b8c       0x76 i:/mcu/gnu_tools_for_arm/11.3_rel1/bin/../lib/gcc/arm-none-eabi/11.3.1/thumb/v7-m/nofp\libgcc.a(_arm_truncdfsf2.o)
 .debug_line    0x00013c02      0x103 i:/mcu/gnu_tools_for_arm/11.3_rel1/bin/../lib/gcc/arm-none-eabi/11.3.1/thumb/v7-m/nofp\libgcc.a(_arm_addsubsf3.o)
 .debug_line    0x00013d05      0x123 i:/mcu/gnu_tools_for_arm/11.3_rel1/bin/../lib/gcc/arm-none-eabi/11.3.1/thumb/v7-m/nofp\libgcc.a(_arm_muldivsf3.o)
 .debug_line    0x00013e28       0x9a i:/mcu/gnu_tools_for_arm/11.3_rel1/bin/../lib/gcc/arm-none-eabi/11.3.1/thumb/v7-m/nofp\libgcc.a(_arm_cmpsf2.o)
 .debug_line    0x00013ec2       0x5e i:/mcu/gnu_tools_for_arm/11.3_rel1/bin/../lib/gcc/arm-none-eabi/11.3.1/thumb/v7-m/nofp\libgcc.a(_arm_fixunssfsi.o)

.debug_str      0x00000000     0x5170
 .debug_str     0x00000000      0x7d6 build/main.o
                                0x896 (size before relaxing)
 .debug_str     0x000007d6       0xdd build/gpio.o
                                0x24e (size before relaxing)
 .debug_str     0x000008b3      0x2b6 build/i2c.o
                                0x71c (size before relaxing)
 .debug_str     0x00000b69       0x4e build/usart.o
                                0x66d (size before relaxing)
 .debug_str     0x00000bb7       0xb4 build/stm32f1xx_it.o
                                0x1e5 (size before relaxing)
 .debug_str     0x00000c6b       0x57 build/stm32f1xx_hal_msp.o
                                0x1e2 (size before relaxing)
 .debug_str     0x00000cc2      0x917 build/stm32f1xx_hal_i2c.o
                                0xf7b (size before relaxing)
 .debug_str     0x000015d9      0x6bb build/stm32f1xx_hal.o
                                0x8d5 (size before relaxing)
 .debug_str     0x00001c94      0x1ed build/stm32f1xx_hal_rcc.o
                                0x5ee (size before relaxing)
 .debug_str     0x00001e81      0x109 build/stm32f1xx_hal_gpio.o
                                0x3c3 (size before relaxing)
 .debug_str     0x00001f8a      0x3b8 build/stm32f1xx_hal_cortex.o
                                0x97a (size before relaxing)
 .debug_str     0x00002342      0x5f8 build/stm32f1xx_hal_uart.o
                                0xc51 (size before relaxing)
 .debug_str     0x0000293a       0x4f build/system_stm32f1xx.o
                                0x217 (size before relaxing)
 .debug_str     0x00002989      0x3c6 build/Waveshare_AS7341.o
                                0x5de (size before relaxing)
 .debug_str     0x00002d4f       0xb7 build/DEV_Config.o
                                0x796 (size before relaxing)
 .debug_str     0x00002e06       0xc8 build/ColorTemperature.o
                                0x29d (size before relaxing)
 .debug_str     0x00002ece       0x13 build/Getdata_test.o
                                0x326 (size before relaxing)
 .debug_str     0x00002ee1       0xda build/Ra_calculate.o
                                0x527 (size before relaxing)
 .debug_str     0x00002fbb      0x401 build/retarget.o
                                0xa2b (size before relaxing)
 .debug_str     0x000033bc       0x22 build/startup_stm32f103xe.o
                                 0x3e (size before relaxing)
 .debug_str     0x000033de      0x3c4 i:/mcu/gnu_tools_for_arm/11.3_rel1/bin/../lib/gcc/arm-none-eabi/11.3.1/thumb/v7-m/nofp\libc_nano.a(libc_a-findfp.o)
                                0x7a7 (size before relaxing)
 .debug_str     0x000037a2       0x59 i:/mcu/gnu_tools_for_arm/11.3_rel1/bin/../lib/gcc/arm-none-eabi/11.3.1/thumb/v7-m/nofp\libc_nano.a(libc_a-fwalk.o)
                                0x534 (size before relaxing)
 .debug_str     0x000037fb       0x8e i:/mcu/gnu_tools_for_arm/11.3_rel1/bin/../lib/gcc/arm-none-eabi/11.3.1/thumb/v7-m/nofp\libc_nano.a(libc_a-printf.o)
                                0x55f (size before relaxing)
 .debug_str     0x00003889       0x90 i:/mcu/gnu_tools_for_arm/11.3_rel1/bin/../lib/gcc/arm-none-eabi/11.3.1/thumb/v7-m/nofp\libc_nano.a(libc_a-puts.o)
                                0x5af (size before relaxing)
 .debug_str     0x00003919       0x86 i:/mcu/gnu_tools_for_arm/11.3_rel1/bin/../lib/gcc/arm-none-eabi/11.3.1/thumb/v7-m/nofp\libc_nano.a(libc_a-setvbuf.o)
                                0x5cd (size before relaxing)
 .debug_str     0x0000399f       0x97 i:/mcu/gnu_tools_for_arm/11.3_rel1/bin/../lib/gcc/arm-none-eabi/11.3.1/thumb/v7-m/nofp\libc_nano.a(libc_a-stdio.o)
                                0x591 (size before relaxing)
 .debug_str     0x00003a36       0x60 i:/mcu/gnu_tools_for_arm/11.3_rel1/bin/../lib/gcc/arm-none-eabi/11.3.1/thumb/v7-m/nofp\libc_nano.a(libc_a-wbuf.o)
                                0x55a (size before relaxing)
 .debug_str     0x00003a96       0x67 i:/mcu/gnu_tools_for_arm/11.3_rel1/bin/../lib/gcc/arm-none-eabi/11.3.1/thumb/v7-m/nofp\libc_nano.a(libc_a-wsetup.o)
                                0x555 (size before relaxing)
 .debug_str     0x00003afd       0x5b i:/mcu/gnu_tools_for_arm/11.3_rel1/bin/../lib/gcc/arm-none-eabi/11.3.1/thumb/v7-m/nofp\libc_nano.a(libc_a-memset.o)
                                0x204 (size before relaxing)
 .debug_str     0x00003b58       0x5a i:/mcu/gnu_tools_for_arm/11.3_rel1/bin/../lib/gcc/arm-none-eabi/11.3.1/thumb/v7-m/nofp\libc_nano.a(libc_a-closer.o)
                                0x51a (size before relaxing)
 .debug_str     0x00003bb2       0x78 i:/mcu/gnu_tools_for_arm/11.3_rel1/bin/../lib/gcc/arm-none-eabi/11.3.1/thumb/v7-m/nofp\libc_nano.a(libc_a-reent.o)
                                0x543 (size before relaxing)
 .debug_str     0x00003c2a       0x5a i:/mcu/gnu_tools_for_arm/11.3_rel1/bin/../lib/gcc/arm-none-eabi/11.3.1/thumb/v7-m/nofp\libc_nano.a(libc_a-impure.o)
                                0x524 (size before relaxing)
 .debug_str     0x00003c84       0x5a i:/mcu/gnu_tools_for_arm/11.3_rel1/bin/../lib/gcc/arm-none-eabi/11.3.1/thumb/v7-m/nofp\libc_nano.a(libc_a-lseekr.o)
                                0x528 (size before relaxing)
 .debug_str     0x00003cde       0x59 i:/mcu/gnu_tools_for_arm/11.3_rel1/bin/../lib/gcc/arm-none-eabi/11.3.1/thumb/v7-m/nofp\libc_nano.a(libc_a-readr.o)
                                0x528 (size before relaxing)
 .debug_str     0x00003d37       0x5a i:/mcu/gnu_tools_for_arm/11.3_rel1/bin/../lib/gcc/arm-none-eabi/11.3.1/thumb/v7-m/nofp\libc_nano.a(libc_a-writer.o)
                                0x52a (size before relaxing)
 .debug_str     0x00003d91       0x59 i:/mcu/gnu_tools_for_arm/11.3_rel1/bin/../lib/gcc/arm-none-eabi/11.3.1/thumb/v7-m/nofp\libc_nano.a(libc_a-errno.o)
                                0x51e (size before relaxing)
 .debug_str     0x00003dea       0xb7 i:/mcu/gnu_tools_for_arm/11.3_rel1/bin/../lib/gcc/arm-none-eabi/11.3.1/thumb/v7-m/nofp\libc_nano.a(libc_a-init.o)
                                0x265 (size before relaxing)
 .debug_str     0x00003ea1      0x1d8 i:/mcu/gnu_tools_for_arm/11.3_rel1/bin/../lib/gcc/arm-none-eabi/11.3.1/thumb/v7-m/nofp\libc_nano.a(libc_a-lock.o)
                                0x377 (size before relaxing)
 .debug_str     0x00004079       0xd4 i:/mcu/gnu_tools_for_arm/11.3_rel1/bin/../lib/gcc/arm-none-eabi/11.3.1/thumb/v7-m/nofp\libc_nano.a(libc_a-freer.o)
                                0x5a4 (size before relaxing)
 .debug_str     0x0000414d       0x67 i:/mcu/gnu_tools_for_arm/11.3_rel1/bin/../lib/gcc/arm-none-eabi/11.3.1/thumb/v7-m/nofp\libc_nano.a(libc_a-malloc.o)
                                0x549 (size before relaxing)
 .debug_str     0x000041b4       0xc3 i:/mcu/gnu_tools_for_arm/11.3_rel1/bin/../lib/gcc/arm-none-eabi/11.3.1/thumb/v7-m/nofp\libc_nano.a(libc_a-mallocr.o)
                                0x605 (size before relaxing)
 .debug_str     0x00004277       0x5a i:/mcu/gnu_tools_for_arm/11.3_rel1/bin/../lib/gcc/arm-none-eabi/11.3.1/thumb/v7-m/nofp\libc_nano.a(libc_a-mlock.o)
                                0x5a6 (size before relaxing)
 .debug_str     0x000042d1      0x2a1 i:/mcu/gnu_tools_for_arm/11.3_rel1/bin/../lib/gcc/arm-none-eabi/11.3.1/thumb/v7-m/nofp\libc_nano.a(libc_a-nano-vfprintf.o)
                                0x8d5 (size before relaxing)
 .debug_str     0x00004572       0xbb i:/mcu/gnu_tools_for_arm/11.3_rel1/bin/../lib/gcc/arm-none-eabi/11.3.1/thumb/v7-m/nofp\libc_nano.a(libc_a-nano-vfprintf_i.o)
                                0x803 (size before relaxing)
 .debug_str     0x0000462d       0x7d i:/mcu/gnu_tools_for_arm/11.3_rel1/bin/../lib/gcc/arm-none-eabi/11.3.1/thumb/v7-m/nofp\libc_nano.a(libc_a-fflush.o)
                                0x5ef (size before relaxing)
 .debug_str     0x000046aa       0x86 i:/mcu/gnu_tools_for_arm/11.3_rel1/bin/../lib/gcc/arm-none-eabi/11.3.1/thumb/v7-m/nofp\libc_nano.a(libc_a-makebuf.o)
                                0x6b7 (size before relaxing)
 .debug_str     0x00004730       0x60 i:/mcu/gnu_tools_for_arm/11.3_rel1/bin/../lib/gcc/arm-none-eabi/11.3.1/thumb/v7-m/nofp\libc_nano.a(libc_a-fstatr.o)
                                0x66c (size before relaxing)
 .debug_str     0x00004790       0x5b i:/mcu/gnu_tools_for_arm/11.3_rel1/bin/../lib/gcc/arm-none-eabi/11.3.1/thumb/v7-m/nofp\libc_nano.a(libc_a-isattyr.o)
                                0x524 (size before relaxing)
 .debug_str     0x000047eb       0x64 i:/mcu/gnu_tools_for_arm/11.3_rel1/bin/../lib/gcc/arm-none-eabi/11.3.1/thumb/v7-m/nofp\libc_nano.a(libc_a-sbrkr.o)
                                0x52d (size before relaxing)
 .debug_str     0x0000484f       0x75 i:/mcu/gnu_tools_for_arm/11.3_rel1/bin/../lib/gcc/arm-none-eabi/11.3.1/thumb/v7-m/nofp\libc_nano.a(libc_a-memchr-stub.o)
                                0x21e (size before relaxing)
 .debug_str     0x000048c4      0x19b i:/mcu/gnu_tools_for_arm/11.3_rel1/bin/../lib/gcc/arm-none-eabi/11.3.1/thumb/v7-m/nofp\libm.a(libm_a-w_pow.o)
                                0x245 (size before relaxing)
 .debug_str     0x00004a5f       0x68 i:/mcu/gnu_tools_for_arm/11.3_rel1/bin/../lib/gcc/arm-none-eabi/11.3.1/thumb/v7-m/nofp\libm.a(libm_a-w_sqrt.o)
                                0x243 (size before relaxing)
 .debug_str     0x00004ac7      0x115 i:/mcu/gnu_tools_for_arm/11.3_rel1/bin/../lib/gcc/arm-none-eabi/11.3.1/thumb/v7-m/nofp\libm.a(libm_a-s_finite.o)
                                0x251 (size before relaxing)
 .debug_str     0x00004bdc       0x7e i:/mcu/gnu_tools_for_arm/11.3_rel1/bin/../lib/gcc/arm-none-eabi/11.3.1/thumb/v7-m/nofp\libm.a(libm_a-e_sqrt.o)
                                0x2b0 (size before relaxing)
 .debug_str     0x00004c5a      0x101 i:/mcu/gnu_tools_for_arm/11.3_rel1/bin/../lib/gcc/arm-none-eabi/11.3.1/thumb/v7-m/nofp\libm.a(libm_a-e_pow.o)
                                0x378 (size before relaxing)
 .debug_str     0x00004d5b       0x5e i:/mcu/gnu_tools_for_arm/11.3_rel1/bin/../lib/gcc/arm-none-eabi/11.3.1/thumb/v7-m/nofp\libm.a(libm_a-s_fabs.o)
                                0x23e (size before relaxing)
 .debug_str     0x00004db9       0x78 i:/mcu/gnu_tools_for_arm/11.3_rel1/bin/../lib/gcc/arm-none-eabi/11.3.1/thumb/v7-m/nofp\libm.a(libm_a-s_scalbn.o)
                                0x295 (size before relaxing)
 .debug_str     0x00004e31       0xd6 i:/mcu/gnu_tools_for_arm/11.3_rel1/bin/../lib/gcc/arm-none-eabi/11.3.1/thumb/v7-m/nofp\libm.a(libm_a-math_err.o)
                                0x315 (size before relaxing)
 .debug_str     0x00004f07      0x14b i:/mcu/gnu_tools_for_arm/11.3_rel1/bin/../lib/gcc/arm-none-eabi/11.3.1/thumb/v7-m/nofp\libnosys.a(sbrk.o)
                                0x164 (size before relaxing)
 .debug_str     0x00005052       0xca i:/mcu/gnu_tools_for_arm/11.3_rel1/bin/../lib/gcc/arm-none-eabi/11.3.1/thumb/v7-m/nofp\libgcc.a(_arm_addsubdf3.o)
                                 0xd6 (size before relaxing)
 .debug_str     0x0000511c       0xd6 i:/mcu/gnu_tools_for_arm/11.3_rel1/bin/../lib/gcc/arm-none-eabi/11.3.1/thumb/v7-m/nofp\libgcc.a(_arm_muldivdf3.o)
 .debug_str     0x0000511c       0xd6 i:/mcu/gnu_tools_for_arm/11.3_rel1/bin/../lib/gcc/arm-none-eabi/11.3.1/thumb/v7-m/nofp\libgcc.a(_arm_cmpdf2.o)
 .debug_str     0x0000511c       0xd6 i:/mcu/gnu_tools_for_arm/11.3_rel1/bin/../lib/gcc/arm-none-eabi/11.3.1/thumb/v7-m/nofp\libgcc.a(_arm_unorddf2.o)
 .debug_str     0x0000511c       0xd6 i:/mcu/gnu_tools_for_arm/11.3_rel1/bin/../lib/gcc/arm-none-eabi/11.3.1/thumb/v7-m/nofp\libgcc.a(_arm_truncdfsf2.o)
 .debug_str     0x0000511c       0x54 i:/mcu/gnu_tools_for_arm/11.3_rel1/bin/../lib/gcc/arm-none-eabi/11.3.1/thumb/v7-m/nofp\libgcc.a(_arm_addsubsf3.o)
                                 0xd6 (size before relaxing)
 .debug_str     0x00005170       0xd6 i:/mcu/gnu_tools_for_arm/11.3_rel1/bin/../lib/gcc/arm-none-eabi/11.3.1/thumb/v7-m/nofp\libgcc.a(_arm_muldivsf3.o)
 .debug_str     0x00005170       0xd6 i:/mcu/gnu_tools_for_arm/11.3_rel1/bin/../lib/gcc/arm-none-eabi/11.3.1/thumb/v7-m/nofp\libgcc.a(_arm_cmpsf2.o)
 .debug_str     0x00005170       0xd6 i:/mcu/gnu_tools_for_arm/11.3_rel1/bin/../lib/gcc/arm-none-eabi/11.3.1/thumb/v7-m/nofp\libgcc.a(_arm_fixunssfsi.o)

.debug_frame    0x00000000     0x2c04
 .debug_frame   0x00000000       0x58 build/main.o
 .debug_frame   0x00000058       0x30 build/gpio.o
 .debug_frame   0x00000088       0x78 build/i2c.o
 .debug_frame   0x00000100       0x60 build/usart.o
 .debug_frame   0x00000160       0xa8 build/stm32f1xx_it.o
 .debug_frame   0x00000208       0x28 build/stm32f1xx_hal_msp.o
 .debug_frame   0x00000230      0x970 build/stm32f1xx_hal_i2c.o
 .debug_frame   0x00000ba0      0x1cc build/stm32f1xx_hal.o
 .debug_frame   0x00000d6c      0x190 build/stm32f1xx_hal_rcc.o
 .debug_frame   0x00000efc       0xe4 build/stm32f1xx_hal_gpio.o
 .debug_frame   0x00000fe0      0x118 build/stm32f1xx_hal_cortex.o
 .debug_frame   0x000010f8      0x5c4 build/stm32f1xx_hal_uart.o
 .debug_frame   0x000016bc       0x30 build/system_stm32f1xx.o
 .debug_frame   0x000016ec      0x364 build/Waveshare_AS7341.o
 .debug_frame   0x00001a50      0x114 build/DEV_Config.o
 .debug_frame   0x00001b64       0x70 build/ColorTemperature.o
 .debug_frame   0x00001bd4       0x28 build/Getdata_test.o
 .debug_frame   0x00001bfc       0x80 build/Ra_calculate.o
 .debug_frame   0x00001c7c       0xb8 build/retarget.o
 .debug_frame   0x00001d34      0x13c i:/mcu/gnu_tools_for_arm/11.3_rel1/bin/../lib/gcc/arm-none-eabi/11.3.1/thumb/v7-m/nofp\libc_nano.a(libc_a-findfp.o)
 .debug_frame   0x00001e70       0x34 i:/mcu/gnu_tools_for_arm/11.3_rel1/bin/../lib/gcc/arm-none-eabi/11.3.1/thumb/v7-m/nofp\libc_nano.a(libc_a-fwalk.o)
 .debug_frame   0x00001ea4       0x6c i:/mcu/gnu_tools_for_arm/11.3_rel1/bin/../lib/gcc/arm-none-eabi/11.3.1/thumb/v7-m/nofp\libc_nano.a(libc_a-printf.o)
 .debug_frame   0x00001f10       0x3c i:/mcu/gnu_tools_for_arm/11.3_rel1/bin/../lib/gcc/arm-none-eabi/11.3.1/thumb/v7-m/nofp\libc_nano.a(libc_a-puts.o)
 .debug_frame   0x00001f4c       0x38 i:/mcu/gnu_tools_for_arm/11.3_rel1/bin/../lib/gcc/arm-none-eabi/11.3.1/thumb/v7-m/nofp\libc_nano.a(libc_a-setvbuf.o)
 .debug_frame   0x00001f84       0x88 i:/mcu/gnu_tools_for_arm/11.3_rel1/bin/../lib/gcc/arm-none-eabi/11.3.1/thumb/v7-m/nofp\libc_nano.a(libc_a-stdio.o)
 .debug_frame   0x0000200c       0x40 i:/mcu/gnu_tools_for_arm/11.3_rel1/bin/../lib/gcc/arm-none-eabi/11.3.1/thumb/v7-m/nofp\libc_nano.a(libc_a-wbuf.o)
 .debug_frame   0x0000204c       0x2c i:/mcu/gnu_tools_for_arm/11.3_rel1/bin/../lib/gcc/arm-none-eabi/11.3.1/thumb/v7-m/nofp\libc_nano.a(libc_a-wsetup.o)
 .debug_frame   0x00002078       0x20 i:/mcu/gnu_tools_for_arm/11.3_rel1/bin/../lib/gcc/arm-none-eabi/11.3.1/thumb/v7-m/nofp\libc_nano.a(libc_a-memset.o)
 .debug_frame   0x00002098       0x2c i:/mcu/gnu_tools_for_arm/11.3_rel1/bin/../lib/gcc/arm-none-eabi/11.3.1/thumb/v7-m/nofp\libc_nano.a(libc_a-closer.o)
 .debug_frame   0x000020c4       0x38 i:/mcu/gnu_tools_for_arm/11.3_rel1/bin/../lib/gcc/arm-none-eabi/11.3.1/thumb/v7-m/nofp\libc_nano.a(libc_a-reent.o)
 .debug_frame   0x000020fc       0x2c i:/mcu/gnu_tools_for_arm/11.3_rel1/bin/../lib/gcc/arm-none-eabi/11.3.1/thumb/v7-m/nofp\libc_nano.a(libc_a-lseekr.o)
 .debug_frame   0x00002128       0x2c i:/mcu/gnu_tools_for_arm/11.3_rel1/bin/../lib/gcc/arm-none-eabi/11.3.1/thumb/v7-m/nofp\libc_nano.a(libc_a-readr.o)
 .debug_frame   0x00002154       0x2c i:/mcu/gnu_tools_for_arm/11.3_rel1/bin/../lib/gcc/arm-none-eabi/11.3.1/thumb/v7-m/nofp\libc_nano.a(libc_a-writer.o)
 .debug_frame   0x00002180       0x20 i:/mcu/gnu_tools_for_arm/11.3_rel1/bin/../lib/gcc/arm-none-eabi/11.3.1/thumb/v7-m/nofp\libc_nano.a(libc_a-errno.o)
 .debug_frame   0x000021a0       0x2c i:/mcu/gnu_tools_for_arm/11.3_rel1/bin/../lib/gcc/arm-none-eabi/11.3.1/thumb/v7-m/nofp\libc_nano.a(libc_a-init.o)
 .debug_frame   0x000021cc       0xb0 i:/mcu/gnu_tools_for_arm/11.3_rel1/bin/../lib/gcc/arm-none-eabi/11.3.1/thumb/v7-m/nofp\libc_nano.a(libc_a-lock.o)
 .debug_frame   0x0000227c       0x38 i:/mcu/gnu_tools_for_arm/11.3_rel1/bin/../lib/gcc/arm-none-eabi/11.3.1/thumb/v7-m/nofp\libc_nano.a(libc_a-freer.o)
 .debug_frame   0x000022b4       0x30 i:/mcu/gnu_tools_for_arm/11.3_rel1/bin/../lib/gcc/arm-none-eabi/11.3.1/thumb/v7-m/nofp\libc_nano.a(libc_a-malloc.o)
 .debug_frame   0x000022e4       0x4c i:/mcu/gnu_tools_for_arm/11.3_rel1/bin/../lib/gcc/arm-none-eabi/11.3.1/thumb/v7-m/nofp\libc_nano.a(libc_a-mallocr.o)
 .debug_frame   0x00002330       0x30 i:/mcu/gnu_tools_for_arm/11.3_rel1/bin/../lib/gcc/arm-none-eabi/11.3.1/thumb/v7-m/nofp\libc_nano.a(libc_a-mlock.o)
 .debug_frame   0x00002360       0xa8 i:/mcu/gnu_tools_for_arm/11.3_rel1/bin/../lib/gcc/arm-none-eabi/11.3.1/thumb/v7-m/nofp\libc_nano.a(libc_a-nano-vfprintf.o)
 .debug_frame   0x00002408       0x60 i:/mcu/gnu_tools_for_arm/11.3_rel1/bin/../lib/gcc/arm-none-eabi/11.3.1/thumb/v7-m/nofp\libc_nano.a(libc_a-nano-vfprintf_i.o)
 .debug_frame   0x00002468       0x5c i:/mcu/gnu_tools_for_arm/11.3_rel1/bin/../lib/gcc/arm-none-eabi/11.3.1/thumb/v7-m/nofp\libc_nano.a(libc_a-fflush.o)
 .debug_frame   0x000024c4       0x58 i:/mcu/gnu_tools_for_arm/11.3_rel1/bin/../lib/gcc/arm-none-eabi/11.3.1/thumb/v7-m/nofp\libc_nano.a(libc_a-makebuf.o)
 .debug_frame   0x0000251c       0x2c i:/mcu/gnu_tools_for_arm/11.3_rel1/bin/../lib/gcc/arm-none-eabi/11.3.1/thumb/v7-m/nofp\libc_nano.a(libc_a-fstatr.o)
 .debug_frame   0x00002548       0x2c i:/mcu/gnu_tools_for_arm/11.3_rel1/bin/../lib/gcc/arm-none-eabi/11.3.1/thumb/v7-m/nofp\libc_nano.a(libc_a-isattyr.o)
 .debug_frame   0x00002574       0x2c i:/mcu/gnu_tools_for_arm/11.3_rel1/bin/../lib/gcc/arm-none-eabi/11.3.1/thumb/v7-m/nofp\libc_nano.a(libc_a-sbrkr.o)
 .debug_frame   0x000025a0       0x28 i:/mcu/gnu_tools_for_arm/11.3_rel1/bin/../lib/gcc/arm-none-eabi/11.3.1/thumb/v7-m/nofp\libc_nano.a(libc_a-memchr-stub.o)
 .debug_frame   0x000025c8       0x34 i:/mcu/gnu_tools_for_arm/11.3_rel1/bin/../lib/gcc/arm-none-eabi/11.3.1/thumb/v7-m/nofp\libm.a(libm_a-w_pow.o)
 .debug_frame   0x000025fc       0x30 i:/mcu/gnu_tools_for_arm/11.3_rel1/bin/../lib/gcc/arm-none-eabi/11.3.1/thumb/v7-m/nofp\libm.a(libm_a-w_sqrt.o)
 .debug_frame   0x0000262c       0x20 i:/mcu/gnu_tools_for_arm/11.3_rel1/bin/../lib/gcc/arm-none-eabi/11.3.1/thumb/v7-m/nofp\libm.a(libm_a-s_finite.o)
 .debug_frame   0x0000264c       0x38 i:/mcu/gnu_tools_for_arm/11.3_rel1/bin/../lib/gcc/arm-none-eabi/11.3.1/thumb/v7-m/nofp\libm.a(libm_a-e_sqrt.o)
 .debug_frame   0x00002684       0x7c i:/mcu/gnu_tools_for_arm/11.3_rel1/bin/../lib/gcc/arm-none-eabi/11.3.1/thumb/v7-m/nofp\libm.a(libm_a-e_pow.o)
 .debug_frame   0x00002700       0x20 i:/mcu/gnu_tools_for_arm/11.3_rel1/bin/../lib/gcc/arm-none-eabi/11.3.1/thumb/v7-m/nofp\libm.a(libm_a-s_fabs.o)
 .debug_frame   0x00002720       0x2c i:/mcu/gnu_tools_for_arm/11.3_rel1/bin/../lib/gcc/arm-none-eabi/11.3.1/thumb/v7-m/nofp\libm.a(libm_a-s_scalbn.o)
 .debug_frame   0x0000274c      0x124 i:/mcu/gnu_tools_for_arm/11.3_rel1/bin/../lib/gcc/arm-none-eabi/11.3.1/thumb/v7-m/nofp\libm.a(libm_a-math_err.o)
 .debug_frame   0x00002870       0x20 i:/mcu/gnu_tools_for_arm/11.3_rel1/bin/../lib/gcc/arm-none-eabi/11.3.1/thumb/v7-m/nofp\libnosys.a(sbrk.o)
 .debug_frame   0x00002890       0xac i:/mcu/gnu_tools_for_arm/11.3_rel1/bin/../lib/gcc/arm-none-eabi/11.3.1/thumb/v7-m/nofp\libgcc.a(_arm_addsubdf3.o)
 .debug_frame   0x0000293c       0x50 i:/mcu/gnu_tools_for_arm/11.3_rel1/bin/../lib/gcc/arm-none-eabi/11.3.1/thumb/v7-m/nofp\libgcc.a(_arm_muldivdf3.o)
 .debug_frame   0x0000298c       0xc4 i:/mcu/gnu_tools_for_arm/11.3_rel1/bin/../lib/gcc/arm-none-eabi/11.3.1/thumb/v7-m/nofp\libgcc.a(_arm_cmpdf2.o)
 .debug_frame   0x00002a50       0x20 i:/mcu/gnu_tools_for_arm/11.3_rel1/bin/../lib/gcc/arm-none-eabi/11.3.1/thumb/v7-m/nofp\libgcc.a(_arm_unorddf2.o)
 .debug_frame   0x00002a70       0x24 i:/mcu/gnu_tools_for_arm/11.3_rel1/bin/../lib/gcc/arm-none-eabi/11.3.1/thumb/v7-m/nofp\libgcc.a(_arm_truncdfsf2.o)
 .debug_frame   0x00002a94       0x4c i:/mcu/gnu_tools_for_arm/11.3_rel1/bin/../lib/gcc/arm-none-eabi/11.3.1/thumb/v7-m/nofp\libgcc.a(_arm_addsubsf3.o)
 .debug_frame   0x00002ae0       0x38 i:/mcu/gnu_tools_for_arm/11.3_rel1/bin/../lib/gcc/arm-none-eabi/11.3.1/thumb/v7-m/nofp\libgcc.a(_arm_muldivsf3.o)
 .debug_frame   0x00002b18       0xc8 i:/mcu/gnu_tools_for_arm/11.3_rel1/bin/../lib/gcc/arm-none-eabi/11.3.1/thumb/v7-m/nofp\libgcc.a(_arm_cmpsf2.o)
 .debug_frame   0x00002be0       0x24 i:/mcu/gnu_tools_for_arm/11.3_rel1/bin/../lib/gcc/arm-none-eabi/11.3.1/thumb/v7-m/nofp\libgcc.a(_arm_fixunssfsi.o)

.debug_loclists
                0x00000000     0x3025
 .debug_loclists
                0x00000000      0x237 i:/mcu/gnu_tools_for_arm/11.3_rel1/bin/../lib/gcc/arm-none-eabi/11.3.1/thumb/v7-m/nofp\libc_nano.a(libc_a-findfp.o)
 .debug_loclists
                0x00000237       0x85 i:/mcu/gnu_tools_for_arm/11.3_rel1/bin/../lib/gcc/arm-none-eabi/11.3.1/thumb/v7-m/nofp\libc_nano.a(libc_a-fwalk.o)
 .debug_loclists
                0x000002bc       0x44 i:/mcu/gnu_tools_for_arm/11.3_rel1/bin/../lib/gcc/arm-none-eabi/11.3.1/thumb/v7-m/nofp\libc_nano.a(libc_a-printf.o)
 .debug_loclists
                0x00000300      0x1c4 i:/mcu/gnu_tools_for_arm/11.3_rel1/bin/../lib/gcc/arm-none-eabi/11.3.1/thumb/v7-m/nofp\libc_nano.a(libc_a-puts.o)
 .debug_loclists
                0x000004c4      0x165 i:/mcu/gnu_tools_for_arm/11.3_rel1/bin/../lib/gcc/arm-none-eabi/11.3.1/thumb/v7-m/nofp\libc_nano.a(libc_a-setvbuf.o)
 .debug_loclists
                0x00000629      0x203 i:/mcu/gnu_tools_for_arm/11.3_rel1/bin/../lib/gcc/arm-none-eabi/11.3.1/thumb/v7-m/nofp\libc_nano.a(libc_a-stdio.o)
 .debug_loclists
                0x0000082c       0xe3 i:/mcu/gnu_tools_for_arm/11.3_rel1/bin/../lib/gcc/arm-none-eabi/11.3.1/thumb/v7-m/nofp\libc_nano.a(libc_a-wbuf.o)
 .debug_loclists
                0x0000090f       0x41 i:/mcu/gnu_tools_for_arm/11.3_rel1/bin/../lib/gcc/arm-none-eabi/11.3.1/thumb/v7-m/nofp\libc_nano.a(libc_a-wsetup.o)
 .debug_loclists
                0x00000950       0x3b i:/mcu/gnu_tools_for_arm/11.3_rel1/bin/../lib/gcc/arm-none-eabi/11.3.1/thumb/v7-m/nofp\libc_nano.a(libc_a-memset.o)
 .debug_loclists
                0x0000098b       0x4c i:/mcu/gnu_tools_for_arm/11.3_rel1/bin/../lib/gcc/arm-none-eabi/11.3.1/thumb/v7-m/nofp\libc_nano.a(libc_a-closer.o)
 .debug_loclists
                0x000009d7       0x7d i:/mcu/gnu_tools_for_arm/11.3_rel1/bin/../lib/gcc/arm-none-eabi/11.3.1/thumb/v7-m/nofp\libc_nano.a(libc_a-reent.o)
 .debug_loclists
                0x00000a54       0x88 i:/mcu/gnu_tools_for_arm/11.3_rel1/bin/../lib/gcc/arm-none-eabi/11.3.1/thumb/v7-m/nofp\libc_nano.a(libc_a-lseekr.o)
 .debug_loclists
                0x00000adc       0x88 i:/mcu/gnu_tools_for_arm/11.3_rel1/bin/../lib/gcc/arm-none-eabi/11.3.1/thumb/v7-m/nofp\libc_nano.a(libc_a-readr.o)
 .debug_loclists
                0x00000b64       0x88 i:/mcu/gnu_tools_for_arm/11.3_rel1/bin/../lib/gcc/arm-none-eabi/11.3.1/thumb/v7-m/nofp\libc_nano.a(libc_a-writer.o)
 .debug_loclists
                0x00000bec       0x34 i:/mcu/gnu_tools_for_arm/11.3_rel1/bin/../lib/gcc/arm-none-eabi/11.3.1/thumb/v7-m/nofp\libc_nano.a(libc_a-init.o)
 .debug_loclists
                0x00000c20       0x23 i:/mcu/gnu_tools_for_arm/11.3_rel1/bin/../lib/gcc/arm-none-eabi/11.3.1/thumb/v7-m/nofp\libc_nano.a(libc_a-lock.o)
 .debug_loclists
                0x00000c43       0xd4 i:/mcu/gnu_tools_for_arm/11.3_rel1/bin/../lib/gcc/arm-none-eabi/11.3.1/thumb/v7-m/nofp\libc_nano.a(libc_a-freer.o)
 .debug_loclists
                0x00000d17       0x48 i:/mcu/gnu_tools_for_arm/11.3_rel1/bin/../lib/gcc/arm-none-eabi/11.3.1/thumb/v7-m/nofp\libc_nano.a(libc_a-malloc.o)
 .debug_loclists
                0x00000d5f      0x254 i:/mcu/gnu_tools_for_arm/11.3_rel1/bin/../lib/gcc/arm-none-eabi/11.3.1/thumb/v7-m/nofp\libc_nano.a(libc_a-mallocr.o)
 .debug_loclists
                0x00000fb3       0x3a i:/mcu/gnu_tools_for_arm/11.3_rel1/bin/../lib/gcc/arm-none-eabi/11.3.1/thumb/v7-m/nofp\libc_nano.a(libc_a-mlock.o)
 .debug_loclists
                0x00000fed      0x3eb i:/mcu/gnu_tools_for_arm/11.3_rel1/bin/../lib/gcc/arm-none-eabi/11.3.1/thumb/v7-m/nofp\libc_nano.a(libc_a-nano-vfprintf.o)
 .debug_loclists
                0x000013d8      0x41c i:/mcu/gnu_tools_for_arm/11.3_rel1/bin/../lib/gcc/arm-none-eabi/11.3.1/thumb/v7-m/nofp\libc_nano.a(libc_a-nano-vfprintf_i.o)
 .debug_loclists
                0x000017f4      0x1ba i:/mcu/gnu_tools_for_arm/11.3_rel1/bin/../lib/gcc/arm-none-eabi/11.3.1/thumb/v7-m/nofp\libc_nano.a(libc_a-fflush.o)
 .debug_loclists
                0x000019ae      0x11d i:/mcu/gnu_tools_for_arm/11.3_rel1/bin/../lib/gcc/arm-none-eabi/11.3.1/thumb/v7-m/nofp\libc_nano.a(libc_a-makebuf.o)
 .debug_loclists
                0x00001acb       0x6a i:/mcu/gnu_tools_for_arm/11.3_rel1/bin/../lib/gcc/arm-none-eabi/11.3.1/thumb/v7-m/nofp\libc_nano.a(libc_a-fstatr.o)
 .debug_loclists
                0x00001b35       0x4c i:/mcu/gnu_tools_for_arm/11.3_rel1/bin/../lib/gcc/arm-none-eabi/11.3.1/thumb/v7-m/nofp\libc_nano.a(libc_a-isattyr.o)
 .debug_loclists
                0x00001b81       0x4c i:/mcu/gnu_tools_for_arm/11.3_rel1/bin/../lib/gcc/arm-none-eabi/11.3.1/thumb/v7-m/nofp\libc_nano.a(libc_a-sbrkr.o)
 .debug_loclists
                0x00001bcd       0xbb i:/mcu/gnu_tools_for_arm/11.3_rel1/bin/../lib/gcc/arm-none-eabi/11.3.1/thumb/v7-m/nofp\libc_nano.a(libc_a-memchr-stub.o)
 .debug_loclists
                0x00001c88       0x69 i:/mcu/gnu_tools_for_arm/11.3_rel1/bin/../lib/gcc/arm-none-eabi/11.3.1/thumb/v7-m/nofp\libm.a(libm_a-w_pow.o)
 .debug_loclists
                0x00001cf1       0x3a i:/mcu/gnu_tools_for_arm/11.3_rel1/bin/../lib/gcc/arm-none-eabi/11.3.1/thumb/v7-m/nofp\libm.a(libm_a-w_sqrt.o)
 .debug_loclists
                0x00001d2b       0x2a i:/mcu/gnu_tools_for_arm/11.3_rel1/bin/../lib/gcc/arm-none-eabi/11.3.1/thumb/v7-m/nofp\libm.a(libm_a-s_finite.o)
 .debug_loclists
                0x00001d55      0x3d2 i:/mcu/gnu_tools_for_arm/11.3_rel1/bin/../lib/gcc/arm-none-eabi/11.3.1/thumb/v7-m/nofp\libm.a(libm_a-e_sqrt.o)
 .debug_loclists
                0x00002127      0xbc7 i:/mcu/gnu_tools_for_arm/11.3_rel1/bin/../lib/gcc/arm-none-eabi/11.3.1/thumb/v7-m/nofp\libm.a(libm_a-e_pow.o)
 .debug_loclists
                0x00002cee       0x1c i:/mcu/gnu_tools_for_arm/11.3_rel1/bin/../lib/gcc/arm-none-eabi/11.3.1/thumb/v7-m/nofp\libm.a(libm_a-s_fabs.o)
 .debug_loclists
                0x00002d0a      0x174 i:/mcu/gnu_tools_for_arm/11.3_rel1/bin/../lib/gcc/arm-none-eabi/11.3.1/thumb/v7-m/nofp\libm.a(libm_a-s_scalbn.o)
 .debug_loclists
                0x00002e7e      0x175 i:/mcu/gnu_tools_for_arm/11.3_rel1/bin/../lib/gcc/arm-none-eabi/11.3.1/thumb/v7-m/nofp\libm.a(libm_a-math_err.o)
 .debug_loclists
                0x00002ff3       0x32 i:/mcu/gnu_tools_for_arm/11.3_rel1/bin/../lib/gcc/arm-none-eabi/11.3.1/thumb/v7-m/nofp\libnosys.a(sbrk.o)

.debug_rnglists
                0x00000000      0x5e9
 .debug_rnglists
                0x00000000       0x81 i:/mcu/gnu_tools_for_arm/11.3_rel1/bin/../lib/gcc/arm-none-eabi/11.3.1/thumb/v7-m/nofp\libc_nano.a(libc_a-findfp.o)
 .debug_rnglists
                0x00000081       0x13 i:/mcu/gnu_tools_for_arm/11.3_rel1/bin/../lib/gcc/arm-none-eabi/11.3.1/thumb/v7-m/nofp\libc_nano.a(libc_a-fwalk.o)
 .debug_rnglists
                0x00000094       0x19 i:/mcu/gnu_tools_for_arm/11.3_rel1/bin/../lib/gcc/arm-none-eabi/11.3.1/thumb/v7-m/nofp\libc_nano.a(libc_a-printf.o)
 .debug_rnglists
                0x000000ad       0x41 i:/mcu/gnu_tools_for_arm/11.3_rel1/bin/../lib/gcc/arm-none-eabi/11.3.1/thumb/v7-m/nofp\libc_nano.a(libc_a-puts.o)
 .debug_rnglists
                0x000000ee       0x20 i:/mcu/gnu_tools_for_arm/11.3_rel1/bin/../lib/gcc/arm-none-eabi/11.3.1/thumb/v7-m/nofp\libc_nano.a(libc_a-setvbuf.o)
 .debug_rnglists
                0x0000010e       0x2b i:/mcu/gnu_tools_for_arm/11.3_rel1/bin/../lib/gcc/arm-none-eabi/11.3.1/thumb/v7-m/nofp\libc_nano.a(libc_a-stdio.o)
 .debug_rnglists
                0x00000139       0x25 i:/mcu/gnu_tools_for_arm/11.3_rel1/bin/../lib/gcc/arm-none-eabi/11.3.1/thumb/v7-m/nofp\libc_nano.a(libc_a-wbuf.o)
 .debug_rnglists
                0x0000015e       0x26 i:/mcu/gnu_tools_for_arm/11.3_rel1/bin/../lib/gcc/arm-none-eabi/11.3.1/thumb/v7-m/nofp\libc_nano.a(libc_a-wsetup.o)
 .debug_rnglists
                0x00000184       0x13 i:/mcu/gnu_tools_for_arm/11.3_rel1/bin/../lib/gcc/arm-none-eabi/11.3.1/thumb/v7-m/nofp\libc_nano.a(libc_a-memset.o)
 .debug_rnglists
                0x00000197       0x13 i:/mcu/gnu_tools_for_arm/11.3_rel1/bin/../lib/gcc/arm-none-eabi/11.3.1/thumb/v7-m/nofp\libc_nano.a(libc_a-closer.o)
 .debug_rnglists
                0x000001aa       0x26 i:/mcu/gnu_tools_for_arm/11.3_rel1/bin/../lib/gcc/arm-none-eabi/11.3.1/thumb/v7-m/nofp\libc_nano.a(libc_a-reent.o)
 .debug_rnglists
                0x000001d0       0x13 i:/mcu/gnu_tools_for_arm/11.3_rel1/bin/../lib/gcc/arm-none-eabi/11.3.1/thumb/v7-m/nofp\libc_nano.a(libc_a-lseekr.o)
 .debug_rnglists
                0x000001e3       0x13 i:/mcu/gnu_tools_for_arm/11.3_rel1/bin/../lib/gcc/arm-none-eabi/11.3.1/thumb/v7-m/nofp\libc_nano.a(libc_a-readr.o)
 .debug_rnglists
                0x000001f6       0x13 i:/mcu/gnu_tools_for_arm/11.3_rel1/bin/../lib/gcc/arm-none-eabi/11.3.1/thumb/v7-m/nofp\libc_nano.a(libc_a-writer.o)
 .debug_rnglists
                0x00000209       0x13 i:/mcu/gnu_tools_for_arm/11.3_rel1/bin/../lib/gcc/arm-none-eabi/11.3.1/thumb/v7-m/nofp\libc_nano.a(libc_a-errno.o)
 .debug_rnglists
                0x0000021c       0x13 i:/mcu/gnu_tools_for_arm/11.3_rel1/bin/../lib/gcc/arm-none-eabi/11.3.1/thumb/v7-m/nofp\libc_nano.a(libc_a-init.o)
 .debug_rnglists
                0x0000022f       0x19 i:/mcu/gnu_tools_for_arm/11.3_rel1/bin/../lib/gcc/arm-none-eabi/11.3.1/thumb/v7-m/nofp\libc_nano.a(libc_a-lock.o)
 .debug_rnglists
                0x00000248       0x14 i:/mcu/gnu_tools_for_arm/11.3_rel1/bin/../lib/gcc/arm-none-eabi/11.3.1/thumb/v7-m/nofp\libc_nano.a(libc_a-freer.o)
 .debug_rnglists
                0x0000025c       0x19 i:/mcu/gnu_tools_for_arm/11.3_rel1/bin/../lib/gcc/arm-none-eabi/11.3.1/thumb/v7-m/nofp\libc_nano.a(libc_a-malloc.o)
 .debug_rnglists
                0x00000275       0x26 i:/mcu/gnu_tools_for_arm/11.3_rel1/bin/../lib/gcc/arm-none-eabi/11.3.1/thumb/v7-m/nofp\libc_nano.a(libc_a-mallocr.o)
 .debug_rnglists
                0x0000029b       0x19 i:/mcu/gnu_tools_for_arm/11.3_rel1/bin/../lib/gcc/arm-none-eabi/11.3.1/thumb/v7-m/nofp\libc_nano.a(libc_a-mlock.o)
 .debug_rnglists
                0x000002b4       0x3b i:/mcu/gnu_tools_for_arm/11.3_rel1/bin/../lib/gcc/arm-none-eabi/11.3.1/thumb/v7-m/nofp\libc_nano.a(libc_a-nano-vfprintf.o)
 .debug_rnglists
                0x000002ef       0x63 i:/mcu/gnu_tools_for_arm/11.3_rel1/bin/../lib/gcc/arm-none-eabi/11.3.1/thumb/v7-m/nofp\libc_nano.a(libc_a-nano-vfprintf_i.o)
 .debug_rnglists
                0x00000352       0x3b i:/mcu/gnu_tools_for_arm/11.3_rel1/bin/../lib/gcc/arm-none-eabi/11.3.1/thumb/v7-m/nofp\libc_nano.a(libc_a-fflush.o)
 .debug_rnglists
                0x0000038d       0x19 i:/mcu/gnu_tools_for_arm/11.3_rel1/bin/../lib/gcc/arm-none-eabi/11.3.1/thumb/v7-m/nofp\libc_nano.a(libc_a-makebuf.o)
 .debug_rnglists
                0x000003a6       0x13 i:/mcu/gnu_tools_for_arm/11.3_rel1/bin/../lib/gcc/arm-none-eabi/11.3.1/thumb/v7-m/nofp\libc_nano.a(libc_a-fstatr.o)
 .debug_rnglists
                0x000003b9       0x13 i:/mcu/gnu_tools_for_arm/11.3_rel1/bin/../lib/gcc/arm-none-eabi/11.3.1/thumb/v7-m/nofp\libc_nano.a(libc_a-isattyr.o)
 .debug_rnglists
                0x000003cc       0x13 i:/mcu/gnu_tools_for_arm/11.3_rel1/bin/../lib/gcc/arm-none-eabi/11.3.1/thumb/v7-m/nofp\libc_nano.a(libc_a-sbrkr.o)
 .debug_rnglists
                0x000003df       0x13 i:/mcu/gnu_tools_for_arm/11.3_rel1/bin/../lib/gcc/arm-none-eabi/11.3.1/thumb/v7-m/nofp\libc_nano.a(libc_a-memchr-stub.o)
 .debug_rnglists
                0x000003f2       0x14 i:/mcu/gnu_tools_for_arm/11.3_rel1/bin/../lib/gcc/arm-none-eabi/11.3.1/thumb/v7-m/nofp\libm.a(libm_a-w_pow.o)
 .debug_rnglists
                0x00000406       0x13 i:/mcu/gnu_tools_for_arm/11.3_rel1/bin/../lib/gcc/arm-none-eabi/11.3.1/thumb/v7-m/nofp\libm.a(libm_a-w_sqrt.o)
 .debug_rnglists
                0x00000419       0x13 i:/mcu/gnu_tools_for_arm/11.3_rel1/bin/../lib/gcc/arm-none-eabi/11.3.1/thumb/v7-m/nofp\libm.a(libm_a-s_finite.o)
 .debug_rnglists
                0x0000042c       0x20 i:/mcu/gnu_tools_for_arm/11.3_rel1/bin/../lib/gcc/arm-none-eabi/11.3.1/thumb/v7-m/nofp\libm.a(libm_a-e_sqrt.o)
 .debug_rnglists
                0x0000044c       0xed i:/mcu/gnu_tools_for_arm/11.3_rel1/bin/../lib/gcc/arm-none-eabi/11.3.1/thumb/v7-m/nofp\libm.a(libm_a-e_pow.o)
 .debug_rnglists
                0x00000539       0x13 i:/mcu/gnu_tools_for_arm/11.3_rel1/bin/../lib/gcc/arm-none-eabi/11.3.1/thumb/v7-m/nofp\libm.a(libm_a-s_fabs.o)
 .debug_rnglists
                0x0000054c       0x3b i:/mcu/gnu_tools_for_arm/11.3_rel1/bin/../lib/gcc/arm-none-eabi/11.3.1/thumb/v7-m/nofp\libm.a(libm_a-s_scalbn.o)
 .debug_rnglists
                0x00000587       0x4f i:/mcu/gnu_tools_for_arm/11.3_rel1/bin/../lib/gcc/arm-none-eabi/11.3.1/thumb/v7-m/nofp\libm.a(libm_a-math_err.o)
 .debug_rnglists
                0x000005d6       0x13 i:/mcu/gnu_tools_for_arm/11.3_rel1/bin/../lib/gcc/arm-none-eabi/11.3.1/thumb/v7-m/nofp\libnosys.a(sbrk.o)

.debug_line_str
                0x00000000       0xd7
 .debug_line_str
                0x00000000       0xca i:/mcu/gnu_tools_for_arm/11.3_rel1/bin/../lib/gcc/arm-none-eabi/11.3.1/thumb/v7-m/nofp\libgcc.a(_arm_addsubdf3.o)
                                 0xd7 (size before relaxing)
 .debug_line_str
                0x000000ca       0xd7 i:/mcu/gnu_tools_for_arm/11.3_rel1/bin/../lib/gcc/arm-none-eabi/11.3.1/thumb/v7-m/nofp\libgcc.a(_arm_muldivdf3.o)
 .debug_line_str
                0x000000ca       0xd7 i:/mcu/gnu_tools_for_arm/11.3_rel1/bin/../lib/gcc/arm-none-eabi/11.3.1/thumb/v7-m/nofp\libgcc.a(_arm_cmpdf2.o)
 .debug_line_str
                0x000000ca       0xd7 i:/mcu/gnu_tools_for_arm/11.3_rel1/bin/../lib/gcc/arm-none-eabi/11.3.1/thumb/v7-m/nofp\libgcc.a(_arm_unorddf2.o)
 .debug_line_str
                0x000000ca       0xd7 i:/mcu/gnu_tools_for_arm/11.3_rel1/bin/../lib/gcc/arm-none-eabi/11.3.1/thumb/v7-m/nofp\libgcc.a(_arm_truncdfsf2.o)
 .debug_line_str
                0x000000ca        0xd i:/mcu/gnu_tools_for_arm/11.3_rel1/bin/../lib/gcc/arm-none-eabi/11.3.1/thumb/v7-m/nofp\libgcc.a(_arm_addsubsf3.o)
                                 0xd7 (size before relaxing)
 .debug_line_str
                0x000000d7       0xd7 i:/mcu/gnu_tools_for_arm/11.3_rel1/bin/../lib/gcc/arm-none-eabi/11.3.1/thumb/v7-m/nofp\libgcc.a(_arm_muldivsf3.o)
 .debug_line_str
                0x000000d7       0xd7 i:/mcu/gnu_tools_for_arm/11.3_rel1/bin/../lib/gcc/arm-none-eabi/11.3.1/thumb/v7-m/nofp\libgcc.a(_arm_cmpsf2.o)
 .debug_line_str
                0x000000d7       0xd7 i:/mcu/gnu_tools_for_arm/11.3_rel1/bin/../lib/gcc/arm-none-eabi/11.3.1/thumb/v7-m/nofp\libgcc.a(_arm_fixunssfsi.o)

Cross Reference Table

Symbol                                            File
ADC1_2_IRQHandler                                 build/startup_stm32f103xe.o
ADC3_IRQHandler                                   build/startup_stm32f103xe.o
AHBPrescTable                                     build/system_stm32f1xx.o
                                                  build/stm32f1xx_hal_rcc.o
APBPrescTable                                     build/system_stm32f1xx.o
                                                  build/stm32f1xx_hal_rcc.o
AS7341_AGAIN_config                               build/Waveshare_AS7341.o
                                                  build/Ra_calculate.o
                                                  build/Syns_test.o
                                                  build/pinINT_test.o
                                                  build/INT_test.o
                                                  build/Getdata_test.o
AS7341_ASTEP_config                               build/Waveshare_AS7341.o
                                                  build/Ra_calculate.o
                                                  build/Syns_test.o
                                                  build/pinINT_test.o
                                                  build/INT_test.o
                                                  build/Getdata_test.o
AS7341_ATIME_config                               build/Waveshare_AS7341.o
                                                  build/Ra_calculate.o
                                                  build/Syns_test.o
                                                  build/pinINT_test.o
                                                  build/INT_test.o
                                                  build/Getdata_test.o
AS7341_ClearInterrupt                             build/Waveshare_AS7341.o
                                                  build/pinINT_test.o
                                                  build/INT_test.o
AS7341_Config                                     build/Waveshare_AS7341.o
AS7341_ControlLed                                 build/Waveshare_AS7341.o
                                                  build/Ra_calculate.o
                                                  build/Getdata_test.o
AS7341_Enable                                     build/Waveshare_AS7341.o
AS7341_EnableFlickerDetection                     build/Waveshare_AS7341.o
AS7341_EnableLED                                  build/Waveshare_AS7341.o
                                                  build/Ra_calculate.o
                                                  build/Getdata_test.o
                                                  build/clear.o
AS7341_EnableSMUX                                 build/Waveshare_AS7341.o
AS7341_EnableSpectralInterrupt                    build/Waveshare_AS7341.o
                                                  build/pinINT_test.o
                                                  build/INT_test.o
AS7341_EnableSpectralMeasure                      build/Waveshare_AS7341.o
AS7341_GetChannelData                             build/Waveshare_AS7341.o
AS7341_GetHighThreshold                           build/Waveshare_AS7341.o
AS7341_GetLowThreshold                            build/Waveshare_AS7341.o
AS7341_INTerrupt                                  build/Waveshare_AS7341.o
                                                  build/INT_test.o
AS7341_Init                                       build/Waveshare_AS7341.o
                                                  build/Ra_calculate.o
                                                  build/Syns_test.o
                                                  build/pinINT_test.o
                                                  build/INT_test.o
                                                  build/Getflicker_test.o
                                                  build/Getdata_test.o
AS7341_MeasureComplete                            build/Waveshare_AS7341.o
                                                  build/Syns_test.o
AS7341_ReadFlickerData                            build/Waveshare_AS7341.o
                                                  build/Getflicker_test.o
AS7341_ReadSpectralDataOne                        build/Waveshare_AS7341.o
                                                  build/Ra_calculate.o
                                                  build/Syns_test.o
                                                  build/pinINT_test.o
                                                  build/INT_test.o
                                                  build/Getdata_test.o
AS7341_ReadSpectralDataTwo                        build/Waveshare_AS7341.o
                                                  build/Ra_calculate.o
                                                  build/Getdata_test.o
AS7341_SetBank                                    build/Waveshare_AS7341.o
AS7341_SetGpioMode                                build/Waveshare_AS7341.o
AS7341_SetInterruptPersistence                    build/Waveshare_AS7341.o
                                                  build/INT_test.o
AS7341_SetSpectralThresholdChannel                build/Waveshare_AS7341.o
                                                  build/INT_test.o
AS7341_SetThreshold                               build/Waveshare_AS7341.o
                                                  build/INT_test.o
AS7341_SynsINT_sel                                build/Waveshare_AS7341.o
AS7341_disableALL                                 build/Waveshare_AS7341.o
                                                  build/clear.o
AS7341_startMeasure                               build/Waveshare_AS7341.o
                                                  build/Ra_calculate.o
                                                  build/Syns_test.o
                                                  build/pinINT_test.o
                                                  build/INT_test.o
                                                  build/Getdata_test.o
BusFault_Handler                                  build/stm32f1xx_it.o
CAN1_RX1_IRQHandler                               build/startup_stm32f103xe.o
CAN1_SCE_IRQHandler                               build/startup_stm32f103xe.o
Calcute_Ra                                        build/Ra_calculate.o
                                                  build/main.o
Clear_all                                         build/clear.o
ColorRenderingFactor                              build/ColorTemperature.o
DEV_Delay_ms                                      build/DEV_Config.o
                                                  build/Ra_calculate.o
                                                  build/Getdata_test.o
                                                  build/Waveshare_AS7341.o
DEV_GPIO_Mode                                     build/DEV_Config.o
DEV_I2C_Device                                    build/DEV_Config.o
DEV_I2C_Init                                      build/DEV_Config.o
                                                  build/clear.o
                                                  build/Waveshare_AS7341.o
DEV_ModuleExit                                    build/DEV_Config.o
DEV_ModuleInit                                    build/DEV_Config.o
                                                  build/Syns_test.o
                                                  build/pinINT_test.o
                                                  build/INT_test.o
                                                  build/Getflicker_test.o
                                                  build/clear.o
                                                  build/main.o
DEV_SPI_Device                                    build/DEV_Config.o
DEV_SPI_Init                                      build/DEV_Config.o
DEV_SPI_WriteByte                                 build/DEV_Config.o
DEV_SPI_Write_nByte                               build/DEV_Config.o
DMA1_Channel1_IRQHandler                          build/startup_stm32f103xe.o
DMA1_Channel2_IRQHandler                          build/startup_stm32f103xe.o
DMA1_Channel3_IRQHandler                          build/startup_stm32f103xe.o
DMA1_Channel4_IRQHandler                          build/startup_stm32f103xe.o
DMA1_Channel5_IRQHandler                          build/startup_stm32f103xe.o
DMA1_Channel6_IRQHandler                          build/startup_stm32f103xe.o
DMA1_Channel7_IRQHandler                          build/startup_stm32f103xe.o
DMA2_Channel1_IRQHandler                          build/startup_stm32f103xe.o
DMA2_Channel2_IRQHandler                          build/startup_stm32f103xe.o
DMA2_Channel3_IRQHandler                          build/startup_stm32f103xe.o
DMA2_Channel4_5_IRQHandler                        build/startup_stm32f103xe.o
DebugMon_Handler                                  build/stm32f1xx_it.o
Default_Handler                                   build/startup_stm32f103xe.o
Device_Init                                       build/Ra_calculate.o
                                                  build/main.o
EXTI0_IRQHandler                                  build/startup_stm32f103xe.o
EXTI15_10_IRQHandler                              build/startup_stm32f103xe.o
EXTI1_IRQHandler                                  build/startup_stm32f103xe.o
EXTI2_IRQHandler                                  build/startup_stm32f103xe.o
EXTI3_IRQHandler                                  build/startup_stm32f103xe.o
EXTI4_IRQHandler                                  build/startup_stm32f103xe.o
EXTI9_5_IRQHandler                                build/startup_stm32f103xe.o
Error_Handler                                     build/main.o
                                                  build/usart.o
                                                  build/i2c.o
F1F4_Clear_NIR                                    build/Waveshare_AS7341.o
F5F8_Clear_NIR                                    build/Waveshare_AS7341.o
FDConfig                                          build/Waveshare_AS7341.o
FLASH_IRQHandler                                  build/startup_stm32f103xe.o
FLASH_PageErase                                   build/stm32f1xx_hal_flash_ex.o
                                                  build/stm32f1xx_hal_flash.o
FLASH_WaitForLastOperation                        build/stm32f1xx_hal_flash.o
                                                  build/stm32f1xx_hal_flash_ex.o
FSMC_IRQHandler                                   build/startup_stm32f103xe.o
GPIO_Config                                       build/DEV_Config.o
Getdata_test                                      build/Getdata_test.o
Getflicker_test                                   build/Getflicker_test.o
HAL_DBGMCU_DisableDBGSleepMode                    build/stm32f1xx_hal.o
HAL_DBGMCU_DisableDBGStandbyMode                  build/stm32f1xx_hal.o
HAL_DBGMCU_DisableDBGStopMode                     build/stm32f1xx_hal.o
HAL_DBGMCU_EnableDBGSleepMode                     build/stm32f1xx_hal.o
HAL_DBGMCU_EnableDBGStandbyMode                   build/stm32f1xx_hal.o
HAL_DBGMCU_EnableDBGStopMode                      build/stm32f1xx_hal.o
HAL_DMA_Abort                                     build/stm32f1xx_hal_dma.o
                                                  build/stm32f1xx_hal_uart.o
HAL_DMA_Abort_IT                                  build/stm32f1xx_hal_dma.o
                                                  build/stm32f1xx_hal_uart.o
                                                  build/stm32f1xx_hal_i2c.o
HAL_DMA_DeInit                                    build/stm32f1xx_hal_dma.o
HAL_DMA_GetError                                  build/stm32f1xx_hal_dma.o
                                                  build/stm32f1xx_hal_uart.o
HAL_DMA_GetState                                  build/stm32f1xx_hal_dma.o
                                                  build/stm32f1xx_hal_i2c.o
HAL_DMA_IRQHandler                                build/stm32f1xx_hal_dma.o
HAL_DMA_Init                                      build/stm32f1xx_hal_dma.o
HAL_DMA_PollForTransfer                           build/stm32f1xx_hal_dma.o
HAL_DMA_RegisterCallback                          build/stm32f1xx_hal_dma.o
HAL_DMA_Start                                     build/stm32f1xx_hal_dma.o
HAL_DMA_Start_IT                                  build/stm32f1xx_hal_dma.o
                                                  build/stm32f1xx_hal_uart.o
                                                  build/stm32f1xx_hal_i2c.o
HAL_DMA_UnRegisterCallback                        build/stm32f1xx_hal_dma.o
HAL_DeInit                                        build/stm32f1xx_hal.o
HAL_Delay                                         build/stm32f1xx_hal.o
                                                  build/DEV_Config.o
HAL_EXTI_ClearConfigLine                          build/stm32f1xx_hal_exti.o
HAL_EXTI_ClearPending                             build/stm32f1xx_hal_exti.o
HAL_EXTI_GenerateSWI                              build/stm32f1xx_hal_exti.o
HAL_EXTI_GetConfigLine                            build/stm32f1xx_hal_exti.o
HAL_EXTI_GetHandle                                build/stm32f1xx_hal_exti.o
HAL_EXTI_GetPending                               build/stm32f1xx_hal_exti.o
HAL_EXTI_IRQHandler                               build/stm32f1xx_hal_exti.o
HAL_EXTI_RegisterCallback                         build/stm32f1xx_hal_exti.o
HAL_EXTI_SetConfigLine                            build/stm32f1xx_hal_exti.o
HAL_FLASHEx_Erase                                 build/stm32f1xx_hal_flash_ex.o
HAL_FLASHEx_Erase_IT                              build/stm32f1xx_hal_flash_ex.o
HAL_FLASHEx_OBErase                               build/stm32f1xx_hal_flash_ex.o
HAL_FLASHEx_OBGetConfig                           build/stm32f1xx_hal_flash_ex.o
HAL_FLASHEx_OBGetUserData                         build/stm32f1xx_hal_flash_ex.o
HAL_FLASHEx_OBProgram                             build/stm32f1xx_hal_flash_ex.o
HAL_FLASH_EndOfOperationCallback                  build/stm32f1xx_hal_flash.o
HAL_FLASH_GetError                                build/stm32f1xx_hal_flash.o
HAL_FLASH_IRQHandler                              build/stm32f1xx_hal_flash.o
HAL_FLASH_Lock                                    build/stm32f1xx_hal_flash.o
HAL_FLASH_OB_Launch                               build/stm32f1xx_hal_flash.o
HAL_FLASH_OB_Lock                                 build/stm32f1xx_hal_flash.o
HAL_FLASH_OB_Unlock                               build/stm32f1xx_hal_flash.o
HAL_FLASH_OperationErrorCallback                  build/stm32f1xx_hal_flash.o
HAL_FLASH_Program                                 build/stm32f1xx_hal_flash.o
HAL_FLASH_Program_IT                              build/stm32f1xx_hal_flash.o
HAL_FLASH_Unlock                                  build/stm32f1xx_hal_flash.o
HAL_GPIOEx_ConfigEventout                         build/stm32f1xx_hal_gpio_ex.o
HAL_GPIOEx_DisableEventout                        build/stm32f1xx_hal_gpio_ex.o
HAL_GPIOEx_EnableEventout                         build/stm32f1xx_hal_gpio_ex.o
HAL_GPIO_DeInit                                   build/stm32f1xx_hal_gpio.o
                                                  build/usart.o
                                                  build/i2c.o
HAL_GPIO_EXTI_Callback                            build/stm32f1xx_hal_gpio.o
HAL_GPIO_EXTI_IRQHandler                          build/stm32f1xx_hal_gpio.o
HAL_GPIO_Init                                     build/stm32f1xx_hal_gpio.o
                                                  build/DEV_Config.o
                                                  build/stm32f1xx_hal_rcc.o
                                                  build/usart.o
                                                  build/i2c.o
                                                  build/gpio.o
HAL_GPIO_LockPin                                  build/stm32f1xx_hal_gpio.o
HAL_GPIO_ReadPin                                  build/stm32f1xx_hal_gpio.o
                                                  build/pinINT_test.o
HAL_GPIO_TogglePin                                build/stm32f1xx_hal_gpio.o
HAL_GPIO_WritePin                                 build/stm32f1xx_hal_gpio.o
                                                  build/gpio.o
HAL_GetDEVID                                      build/stm32f1xx_hal.o
HAL_GetHalVersion                                 build/stm32f1xx_hal.o
HAL_GetREVID                                      build/stm32f1xx_hal.o
HAL_GetTick                                       build/stm32f1xx_hal.o
                                                  build/stm32f1xx_hal_uart.o
                                                  build/stm32f1xx_hal_flash.o
                                                  build/stm32f1xx_hal_dma.o
                                                  build/stm32f1xx_hal_rcc_ex.o
                                                  build/stm32f1xx_hal_rcc.o
                                                  build/stm32f1xx_hal_i2c.o
HAL_GetTickFreq                                   build/stm32f1xx_hal.o
HAL_GetTickPrio                                   build/stm32f1xx_hal.o
HAL_GetUIDw0                                      build/stm32f1xx_hal.o
HAL_GetUIDw1                                      build/stm32f1xx_hal.o
HAL_GetUIDw2                                      build/stm32f1xx_hal.o
HAL_HalfDuplex_EnableReceiver                     build/stm32f1xx_hal_uart.o
HAL_HalfDuplex_EnableTransmitter                  build/stm32f1xx_hal_uart.o
HAL_HalfDuplex_Init                               build/stm32f1xx_hal_uart.o
HAL_I2C_AbortCpltCallback                         build/stm32f1xx_hal_i2c.o
HAL_I2C_AddrCallback                              build/stm32f1xx_hal_i2c.o
HAL_I2C_DeInit                                    build/stm32f1xx_hal_i2c.o
HAL_I2C_DisableListen_IT                          build/stm32f1xx_hal_i2c.o
HAL_I2C_ER_IRQHandler                             build/stm32f1xx_hal_i2c.o
HAL_I2C_EV_IRQHandler                             build/stm32f1xx_hal_i2c.o
HAL_I2C_EnableListen_IT                           build/stm32f1xx_hal_i2c.o
HAL_I2C_ErrorCallback                             build/stm32f1xx_hal_i2c.o
HAL_I2C_GetError                                  build/stm32f1xx_hal_i2c.o
HAL_I2C_GetMode                                   build/stm32f1xx_hal_i2c.o
HAL_I2C_GetState                                  build/stm32f1xx_hal_i2c.o
HAL_I2C_Init                                      build/stm32f1xx_hal_i2c.o
                                                  build/i2c.o
HAL_I2C_IsDeviceReady                             build/stm32f1xx_hal_i2c.o
HAL_I2C_ListenCpltCallback                        build/stm32f1xx_hal_i2c.o
HAL_I2C_MasterRxCpltCallback                      build/stm32f1xx_hal_i2c.o
HAL_I2C_MasterTxCpltCallback                      build/stm32f1xx_hal_i2c.o
HAL_I2C_Master_Abort_IT                           build/stm32f1xx_hal_i2c.o
HAL_I2C_Master_Receive                            build/stm32f1xx_hal_i2c.o
HAL_I2C_Master_Receive_DMA                        build/stm32f1xx_hal_i2c.o
HAL_I2C_Master_Receive_IT                         build/stm32f1xx_hal_i2c.o
HAL_I2C_Master_Seq_Receive_DMA                    build/stm32f1xx_hal_i2c.o
HAL_I2C_Master_Seq_Receive_IT                     build/stm32f1xx_hal_i2c.o
HAL_I2C_Master_Seq_Transmit_DMA                   build/stm32f1xx_hal_i2c.o
HAL_I2C_Master_Seq_Transmit_IT                    build/stm32f1xx_hal_i2c.o
HAL_I2C_Master_Transmit                           build/stm32f1xx_hal_i2c.o
HAL_I2C_Master_Transmit_DMA                       build/stm32f1xx_hal_i2c.o
HAL_I2C_Master_Transmit_IT                        build/stm32f1xx_hal_i2c.o
HAL_I2C_MemRxCpltCallback                         build/stm32f1xx_hal_i2c.o
HAL_I2C_MemTxCpltCallback                         build/stm32f1xx_hal_i2c.o
HAL_I2C_Mem_Read                                  build/stm32f1xx_hal_i2c.o
                                                  build/DEV_Config.o
HAL_I2C_Mem_Read_DMA                              build/stm32f1xx_hal_i2c.o
HAL_I2C_Mem_Read_IT                               build/stm32f1xx_hal_i2c.o
HAL_I2C_Mem_Write                                 build/stm32f1xx_hal_i2c.o
                                                  build/DEV_Config.o
HAL_I2C_Mem_Write_DMA                             build/stm32f1xx_hal_i2c.o
HAL_I2C_Mem_Write_IT                              build/stm32f1xx_hal_i2c.o
HAL_I2C_MspDeInit                                 build/i2c.o
HAL_I2C_MspInit                                   build/i2c.o
HAL_I2C_SlaveRxCpltCallback                       build/stm32f1xx_hal_i2c.o
HAL_I2C_SlaveTxCpltCallback                       build/stm32f1xx_hal_i2c.o
HAL_I2C_Slave_Receive                             build/stm32f1xx_hal_i2c.o
HAL_I2C_Slave_Receive_DMA                         build/stm32f1xx_hal_i2c.o
HAL_I2C_Slave_Receive_IT                          build/stm32f1xx_hal_i2c.o
HAL_I2C_Slave_Seq_Receive_DMA                     build/stm32f1xx_hal_i2c.o
HAL_I2C_Slave_Seq_Receive_IT                      build/stm32f1xx_hal_i2c.o
HAL_I2C_Slave_Seq_Transmit_DMA                    build/stm32f1xx_hal_i2c.o
HAL_I2C_Slave_Seq_Transmit_IT                     build/stm32f1xx_hal_i2c.o
HAL_I2C_Slave_Transmit                            build/stm32f1xx_hal_i2c.o
HAL_I2C_Slave_Transmit_DMA                        build/stm32f1xx_hal_i2c.o
HAL_I2C_Slave_Transmit_IT                         build/stm32f1xx_hal_i2c.o
HAL_IncTick                                       build/stm32f1xx_hal.o
                                                  build/stm32f1xx_it.o
HAL_Init                                          build/stm32f1xx_hal.o
                                                  build/main.o
HAL_InitTick                                      build/stm32f1xx_hal.o
                                                  build/stm32f1xx_hal_rcc.o
HAL_LIN_Init                                      build/stm32f1xx_hal_uart.o
HAL_LIN_SendBreak                                 build/stm32f1xx_hal_uart.o
HAL_MspDeInit                                     build/stm32f1xx_hal.o
HAL_MspInit                                       build/stm32f1xx_hal_msp.o
HAL_MultiProcessor_EnterMuteMode                  build/stm32f1xx_hal_uart.o
HAL_MultiProcessor_ExitMuteMode                   build/stm32f1xx_hal_uart.o
HAL_MultiProcessor_Init                           build/stm32f1xx_hal_uart.o
HAL_NVIC_ClearPendingIRQ                          build/stm32f1xx_hal_cortex.o
HAL_NVIC_DisableIRQ                               build/stm32f1xx_hal_cortex.o
HAL_NVIC_EnableIRQ                                build/stm32f1xx_hal_cortex.o
HAL_NVIC_GetActive                                build/stm32f1xx_hal_cortex.o
HAL_NVIC_GetPendingIRQ                            build/stm32f1xx_hal_cortex.o
HAL_NVIC_GetPriority                              build/stm32f1xx_hal_cortex.o
HAL_NVIC_GetPriorityGrouping                      build/stm32f1xx_hal_cortex.o
HAL_NVIC_SetPendingIRQ                            build/stm32f1xx_hal_cortex.o
HAL_NVIC_SetPriority                              build/stm32f1xx_hal_cortex.o
                                                  build/stm32f1xx_hal.o
HAL_NVIC_SetPriorityGrouping                      build/stm32f1xx_hal_cortex.o
                                                  build/stm32f1xx_hal.o
HAL_NVIC_SystemReset                              build/stm32f1xx_hal_cortex.o
                                                  build/stm32f1xx_hal_flash.o
HAL_PWR_ConfigPVD                                 build/stm32f1xx_hal_pwr.o
HAL_PWR_DeInit                                    build/stm32f1xx_hal_pwr.o
HAL_PWR_DisableBkUpAccess                         build/stm32f1xx_hal_pwr.o
HAL_PWR_DisablePVD                                build/stm32f1xx_hal_pwr.o
HAL_PWR_DisableSEVOnPend                          build/stm32f1xx_hal_pwr.o
HAL_PWR_DisableSleepOnExit                        build/stm32f1xx_hal_pwr.o
HAL_PWR_DisableWakeUpPin                          build/stm32f1xx_hal_pwr.o
HAL_PWR_EnableBkUpAccess                          build/stm32f1xx_hal_pwr.o
HAL_PWR_EnablePVD                                 build/stm32f1xx_hal_pwr.o
HAL_PWR_EnableSEVOnPend                           build/stm32f1xx_hal_pwr.o
HAL_PWR_EnableSleepOnExit                         build/stm32f1xx_hal_pwr.o
HAL_PWR_EnableWakeUpPin                           build/stm32f1xx_hal_pwr.o
HAL_PWR_EnterSLEEPMode                            build/stm32f1xx_hal_pwr.o
HAL_PWR_EnterSTANDBYMode                          build/stm32f1xx_hal_pwr.o
HAL_PWR_EnterSTOPMode                             build/stm32f1xx_hal_pwr.o
HAL_PWR_PVDCallback                               build/stm32f1xx_hal_pwr.o
HAL_PWR_PVD_IRQHandler                            build/stm32f1xx_hal_pwr.o
HAL_RCCEx_GetPeriphCLKConfig                      build/stm32f1xx_hal_rcc_ex.o
HAL_RCCEx_GetPeriphCLKFreq                        build/stm32f1xx_hal_rcc_ex.o
HAL_RCCEx_PeriphCLKConfig                         build/stm32f1xx_hal_rcc_ex.o
HAL_RCC_CSSCallback                               build/stm32f1xx_hal_rcc.o
HAL_RCC_ClockConfig                               build/stm32f1xx_hal_rcc.o
                                                  build/main.o
HAL_RCC_DeInit                                    build/stm32f1xx_hal_rcc.o
HAL_RCC_DisableCSS                                build/stm32f1xx_hal_rcc.o
HAL_RCC_EnableCSS                                 build/stm32f1xx_hal_rcc.o
HAL_RCC_GetClockConfig                            build/stm32f1xx_hal_rcc.o
HAL_RCC_GetHCLKFreq                               build/stm32f1xx_hal_rcc.o
HAL_RCC_GetOscConfig                              build/stm32f1xx_hal_rcc.o
HAL_RCC_GetPCLK1Freq                              build/stm32f1xx_hal_rcc.o
                                                  build/stm32f1xx_hal_uart.o
                                                  build/stm32f1xx_hal_i2c.o
HAL_RCC_GetPCLK2Freq                              build/stm32f1xx_hal_rcc.o
                                                  build/stm32f1xx_hal_uart.o
                                                  build/stm32f1xx_hal_rcc_ex.o
HAL_RCC_GetSysClockFreq                           build/stm32f1xx_hal_rcc.o
                                                  build/stm32f1xx_hal_rcc_ex.o
HAL_RCC_MCOConfig                                 build/stm32f1xx_hal_rcc.o
HAL_RCC_NMI_IRQHandler                            build/stm32f1xx_hal_rcc.o
HAL_RCC_OscConfig                                 build/stm32f1xx_hal_rcc.o
                                                  build/main.o
HAL_ResumeTick                                    build/stm32f1xx_hal.o
HAL_SYSTICK_CLKSourceConfig                       build/stm32f1xx_hal_cortex.o
HAL_SYSTICK_Callback                              build/stm32f1xx_hal_cortex.o
HAL_SYSTICK_Config                                build/stm32f1xx_hal_cortex.o
                                                  build/stm32f1xx_hal.o
HAL_SYSTICK_IRQHandler                            build/stm32f1xx_hal_cortex.o
HAL_SetTickFreq                                   build/stm32f1xx_hal.o
HAL_SuspendTick                                   build/stm32f1xx_hal.o
HAL_UARTEx_ReceiveToIdle                          build/stm32f1xx_hal_uart.o
HAL_UARTEx_ReceiveToIdle_DMA                      build/stm32f1xx_hal_uart.o
HAL_UARTEx_ReceiveToIdle_IT                       build/stm32f1xx_hal_uart.o
HAL_UARTEx_RxEventCallback                        build/stm32f1xx_hal_uart.o
HAL_UART_Abort                                    build/stm32f1xx_hal_uart.o
HAL_UART_AbortCpltCallback                        build/stm32f1xx_hal_uart.o
HAL_UART_AbortReceive                             build/stm32f1xx_hal_uart.o
HAL_UART_AbortReceiveCpltCallback                 build/stm32f1xx_hal_uart.o
HAL_UART_AbortReceive_IT                          build/stm32f1xx_hal_uart.o
HAL_UART_AbortTransmit                            build/stm32f1xx_hal_uart.o
HAL_UART_AbortTransmitCpltCallback                build/stm32f1xx_hal_uart.o
HAL_UART_AbortTransmit_IT                         build/stm32f1xx_hal_uart.o
HAL_UART_Abort_IT                                 build/stm32f1xx_hal_uart.o
HAL_UART_DMAPause                                 build/stm32f1xx_hal_uart.o
HAL_UART_DMAResume                                build/stm32f1xx_hal_uart.o
HAL_UART_DMAStop                                  build/stm32f1xx_hal_uart.o
HAL_UART_DeInit                                   build/stm32f1xx_hal_uart.o
HAL_UART_ErrorCallback                            build/stm32f1xx_hal_uart.o
HAL_UART_GetError                                 build/stm32f1xx_hal_uart.o
HAL_UART_GetState                                 build/stm32f1xx_hal_uart.o
HAL_UART_IRQHandler                               build/stm32f1xx_hal_uart.o
HAL_UART_Init                                     build/stm32f1xx_hal_uart.o
                                                  build/usart.o
HAL_UART_MspDeInit                                build/usart.o
HAL_UART_MspInit                                  build/usart.o
HAL_UART_Receive                                  build/stm32f1xx_hal_uart.o
                                                  build/retarget.o
HAL_UART_Receive_DMA                              build/stm32f1xx_hal_uart.o
HAL_UART_Receive_IT                               build/stm32f1xx_hal_uart.o
HAL_UART_RxCpltCallback                           build/stm32f1xx_hal_uart.o
HAL_UART_RxHalfCpltCallback                       build/stm32f1xx_hal_uart.o
HAL_UART_Transmit                                 build/stm32f1xx_hal_uart.o
                                                  build/retarget.o
HAL_UART_Transmit_DMA                             build/stm32f1xx_hal_uart.o
HAL_UART_Transmit_IT                              build/stm32f1xx_hal_uart.o
HAL_UART_TxCpltCallback                           build/stm32f1xx_hal_uart.o
HAL_UART_TxHalfCpltCallback                       build/stm32f1xx_hal_uart.o
HardFault_Handler                                 build/stm32f1xx_it.o
I2C1_ER_IRQHandler                                build/startup_stm32f103xe.o
I2C1_EV_IRQHandler                                build/startup_stm32f103xe.o
I2C2_ER_IRQHandler                                build/startup_stm32f103xe.o
I2C2_EV_IRQHandler                                build/startup_stm32f103xe.o
I2C_ADDR                                          build/DEV_Config.o
I2C_Read_Byte                                     build/DEV_Config.o
                                                  build/Waveshare_AS7341.o
I2C_Read_Word                                     build/DEV_Config.o
I2C_Write_Byte                                    build/DEV_Config.o
                                                  build/Waveshare_AS7341.o
INT_test                                          build/INT_test.o
MX_GPIO_Init                                      build/gpio.o
                                                  build/main.o
MX_I2C1_Init                                      build/i2c.o
                                                  build/main.o
MX_I2C2_Init                                      build/i2c.o
                                                  build/main.o
MX_USART1_UART_Init                               build/usart.o
                                                  build/main.o
MemManage_Handler                                 build/stm32f1xx_it.o
My_Getdata_test                                   build/Ra_calculate.o
                                                  build/main.o
NMI_Handler                                       build/stm32f1xx_it.o
PVD_IRQHandler                                    build/startup_stm32f103xe.o
PendSV_Handler                                    build/stm32f1xx_it.o
RCC_IRQHandler                                    build/startup_stm32f103xe.o
RTC_Alarm_IRQHandler                              build/startup_stm32f103xe.o
RTC_IRQHandler                                    build/startup_stm32f103xe.o
Reset_Handler                                     build/startup_stm32f103xe.o
RetargetInit                                      build/retarget.o
                                                  build/main.o
SDIO_IRQHandler                                   build/startup_stm32f103xe.o
SPI1_IRQHandler                                   build/startup_stm32f103xe.o
SPI2_IRQHandler                                   build/startup_stm32f103xe.o
SPI3_IRQHandler                                   build/startup_stm32f103xe.o
SVC_Handler                                       build/stm32f1xx_it.o
Syns_test                                         build/Syns_test.o
SysTick_Handler                                   build/stm32f1xx_it.o
SystemClock_Config                                build/main.o
SystemCoreClock                                   build/system_stm32f1xx.o
                                                  build/stm32f1xx_hal_rcc.o
                                                  build/stm32f1xx_hal.o
                                                  build/stm32f1xx_hal_i2c.o
SystemCoreClockUpdate                             build/system_stm32f1xx.o
SystemInit                                        build/system_stm32f1xx.o
                                                  build/startup_stm32f103xe.o
TAMPER_IRQHandler                                 build/startup_stm32f103xe.o
TIM1_BRK_IRQHandler                               build/startup_stm32f103xe.o
TIM1_CC_IRQHandler                                build/startup_stm32f103xe.o
TIM1_TRG_COM_IRQHandler                           build/startup_stm32f103xe.o
TIM1_UP_IRQHandler                                build/startup_stm32f103xe.o
TIM2_IRQHandler                                   build/startup_stm32f103xe.o
TIM3_IRQHandler                                   build/startup_stm32f103xe.o
TIM4_IRQHandler                                   build/startup_stm32f103xe.o
TIM5_IRQHandler                                   build/startup_stm32f103xe.o
TIM6_IRQHandler                                   build/startup_stm32f103xe.o
TIM7_IRQHandler                                   build/startup_stm32f103xe.o
TIM8_BRK_IRQHandler                               build/startup_stm32f103xe.o
TIM8_CC_IRQHandler                                build/startup_stm32f103xe.o
TIM8_TRG_COM_IRQHandler                           build/startup_stm32f103xe.o
TIM8_UP_IRQHandler                                build/startup_stm32f103xe.o
TemCalculate                                      build/ColorTemperature.o
                                                  build/main.o
UART4_IRQHandler                                  build/startup_stm32f103xe.o
UART5_IRQHandler                                  build/startup_stm32f103xe.o
UART_Start_Receive_DMA                            build/stm32f1xx_hal_uart.o
UART_Start_Receive_IT                             build/stm32f1xx_hal_uart.o
USART1_IRQHandler                                 build/startup_stm32f103xe.o
USART2_IRQHandler                                 build/startup_stm32f103xe.o
USART3_IRQHandler                                 build/startup_stm32f103xe.o
USBWakeUp_IRQHandler                              build/startup_stm32f103xe.o
USB_HP_CAN1_TX_IRQHandler                         build/startup_stm32f103xe.o
USB_LP_CAN1_RX0_IRQHandler                        build/startup_stm32f103xe.o
UsageFault_Handler                                build/stm32f1xx_it.o
WWDG_IRQHandler                                   build/startup_stm32f103xe.o
X                                                 build/ColorTemperature.o
Y                                                 build/ColorTemperature.o
Z                                                 build/ColorTemperature.o
_ITM_deregisterTMCloneTable                       i:/mcu/gnu_tools_for_arm/11.3_rel1/bin/../lib/gcc/arm-none-eabi/11.3.1/thumb/v7-m/nofp/crtbegin.o
_ITM_registerTMCloneTable                         i:/mcu/gnu_tools_for_arm/11.3_rel1/bin/../lib/gcc/arm-none-eabi/11.3.1/thumb/v7-m/nofp/crtbegin.o
__TMC_END__                                       i:/mcu/gnu_tools_for_arm/11.3_rel1/bin/../lib/gcc/arm-none-eabi/11.3.1/thumb/v7-m/nofp/crtend.o
                                                  i:/mcu/gnu_tools_for_arm/11.3_rel1/bin/../lib/gcc/arm-none-eabi/11.3.1/thumb/v7-m/nofp/crtbegin.o
__adddf3                                          i:/mcu/gnu_tools_for_arm/11.3_rel1/bin/../lib/gcc/arm-none-eabi/11.3.1/thumb/v7-m/nofp\libgcc.a(_arm_addsubdf3.o)
__addsf3                                          i:/mcu/gnu_tools_for_arm/11.3_rel1/bin/../lib/gcc/arm-none-eabi/11.3.1/thumb/v7-m/nofp\libgcc.a(_arm_addsubsf3.o)
__aeabi_cdcmpeq                                   i:/mcu/gnu_tools_for_arm/11.3_rel1/bin/../lib/gcc/arm-none-eabi/11.3.1/thumb/v7-m/nofp\libgcc.a(_arm_cmpdf2.o)
__aeabi_cdcmple                                   i:/mcu/gnu_tools_for_arm/11.3_rel1/bin/../lib/gcc/arm-none-eabi/11.3.1/thumb/v7-m/nofp\libgcc.a(_arm_cmpdf2.o)
__aeabi_cdrcmple                                  i:/mcu/gnu_tools_for_arm/11.3_rel1/bin/../lib/gcc/arm-none-eabi/11.3.1/thumb/v7-m/nofp\libgcc.a(_arm_cmpdf2.o)
__aeabi_cfcmpeq                                   i:/mcu/gnu_tools_for_arm/11.3_rel1/bin/../lib/gcc/arm-none-eabi/11.3.1/thumb/v7-m/nofp\libgcc.a(_arm_cmpsf2.o)
__aeabi_cfcmple                                   i:/mcu/gnu_tools_for_arm/11.3_rel1/bin/../lib/gcc/arm-none-eabi/11.3.1/thumb/v7-m/nofp\libgcc.a(_arm_cmpsf2.o)
__aeabi_cfrcmple                                  i:/mcu/gnu_tools_for_arm/11.3_rel1/bin/../lib/gcc/arm-none-eabi/11.3.1/thumb/v7-m/nofp\libgcc.a(_arm_cmpsf2.o)
__aeabi_d2f                                       i:/mcu/gnu_tools_for_arm/11.3_rel1/bin/../lib/gcc/arm-none-eabi/11.3.1/thumb/v7-m/nofp\libgcc.a(_arm_truncdfsf2.o)
                                                  build/Ra_calculate.o
                                                  build/ColorTemperature.o
__aeabi_dadd                                      i:/mcu/gnu_tools_for_arm/11.3_rel1/bin/../lib/gcc/arm-none-eabi/11.3.1/thumb/v7-m/nofp\libgcc.a(_arm_addsubdf3.o)
                                                  i:/mcu/gnu_tools_for_arm/11.3_rel1/bin/../lib/gcc/arm-none-eabi/11.3.1/thumb/v7-m/nofp\libm.a(libm_a-s_scalbn.o)
                                                  i:/mcu/gnu_tools_for_arm/11.3_rel1/bin/../lib/gcc/arm-none-eabi/11.3.1/thumb/v7-m/nofp\libm.a(libm_a-e_pow.o)
                                                  i:/mcu/gnu_tools_for_arm/11.3_rel1/bin/../lib/gcc/arm-none-eabi/11.3.1/thumb/v7-m/nofp\libm.a(libm_a-e_sqrt.o)
                                                  build/Ra_calculate.o
                                                  build/ColorTemperature.o
__aeabi_dcmpeq                                    i:/mcu/gnu_tools_for_arm/11.3_rel1/bin/../lib/gcc/arm-none-eabi/11.3.1/thumb/v7-m/nofp\libgcc.a(_arm_cmpdf2.o)
                                                  i:/mcu/gnu_tools_for_arm/11.3_rel1/bin/../lib/gcc/arm-none-eabi/11.3.1/thumb/v7-m/nofp\libm.a(libm_a-math_err.o)
                                                  i:/mcu/gnu_tools_for_arm/11.3_rel1/bin/../lib/gcc/arm-none-eabi/11.3.1/thumb/v7-m/nofp\libm.a(libm_a-w_pow.o)
__aeabi_dcmpge                                    i:/mcu/gnu_tools_for_arm/11.3_rel1/bin/../lib/gcc/arm-none-eabi/11.3.1/thumb/v7-m/nofp\libgcc.a(_arm_cmpdf2.o)
                                                  i:/mcu/gnu_tools_for_arm/11.3_rel1/bin/../lib/gcc/arm-none-eabi/11.3.1/thumb/v7-m/nofp\libm.a(libm_a-e_pow.o)
__aeabi_dcmpgt                                    i:/mcu/gnu_tools_for_arm/11.3_rel1/bin/../lib/gcc/arm-none-eabi/11.3.1/thumb/v7-m/nofp\libgcc.a(_arm_cmpdf2.o)
                                                  i:/mcu/gnu_tools_for_arm/11.3_rel1/bin/../lib/gcc/arm-none-eabi/11.3.1/thumb/v7-m/nofp\libm.a(libm_a-e_pow.o)
                                                  build/Ra_calculate.o
__aeabi_dcmple                                    i:/mcu/gnu_tools_for_arm/11.3_rel1/bin/../lib/gcc/arm-none-eabi/11.3.1/thumb/v7-m/nofp\libgcc.a(_arm_cmpdf2.o)
                                                  i:/mcu/gnu_tools_for_arm/11.3_rel1/bin/../lib/gcc/arm-none-eabi/11.3.1/thumb/v7-m/nofp\libm.a(libm_a-math_err.o)
                                                  i:/mcu/gnu_tools_for_arm/11.3_rel1/bin/../lib/gcc/arm-none-eabi/11.3.1/thumb/v7-m/nofp\libm.a(libm_a-e_sqrt.o)
__aeabi_dcmplt                                    i:/mcu/gnu_tools_for_arm/11.3_rel1/bin/../lib/gcc/arm-none-eabi/11.3.1/thumb/v7-m/nofp\libgcc.a(_arm_cmpdf2.o)
                                                  i:/mcu/gnu_tools_for_arm/11.3_rel1/bin/../lib/gcc/arm-none-eabi/11.3.1/thumb/v7-m/nofp\libm.a(libm_a-e_pow.o)
                                                  i:/mcu/gnu_tools_for_arm/11.3_rel1/bin/../lib/gcc/arm-none-eabi/11.3.1/thumb/v7-m/nofp\libm.a(libm_a-e_sqrt.o)
                                                  i:/mcu/gnu_tools_for_arm/11.3_rel1/bin/../lib/gcc/arm-none-eabi/11.3.1/thumb/v7-m/nofp\libm.a(libm_a-w_sqrt.o)
                                                  i:/mcu/gnu_tools_for_arm/11.3_rel1/bin/../lib/gcc/arm-none-eabi/11.3.1/thumb/v7-m/nofp\libm.a(libm_a-w_pow.o)
__aeabi_dcmpun                                    i:/mcu/gnu_tools_for_arm/11.3_rel1/bin/../lib/gcc/arm-none-eabi/11.3.1/thumb/v7-m/nofp\libgcc.a(_arm_unorddf2.o)
                                                  i:/mcu/gnu_tools_for_arm/11.3_rel1/bin/../lib/gcc/arm-none-eabi/11.3.1/thumb/v7-m/nofp\libm.a(libm_a-math_err.o)
                                                  i:/mcu/gnu_tools_for_arm/11.3_rel1/bin/../lib/gcc/arm-none-eabi/11.3.1/thumb/v7-m/nofp\libm.a(libm_a-w_sqrt.o)
                                                  i:/mcu/gnu_tools_for_arm/11.3_rel1/bin/../lib/gcc/arm-none-eabi/11.3.1/thumb/v7-m/nofp\libm.a(libm_a-w_pow.o)
__aeabi_ddiv                                      i:/mcu/gnu_tools_for_arm/11.3_rel1/bin/../lib/gcc/arm-none-eabi/11.3.1/thumb/v7-m/nofp\libgcc.a(_arm_muldivdf3.o)
                                                  i:/mcu/gnu_tools_for_arm/11.3_rel1/bin/../lib/gcc/arm-none-eabi/11.3.1/thumb/v7-m/nofp\libm.a(libm_a-math_err.o)
                                                  i:/mcu/gnu_tools_for_arm/11.3_rel1/bin/../lib/gcc/arm-none-eabi/11.3.1/thumb/v7-m/nofp\libm.a(libm_a-e_pow.o)
                                                  i:/mcu/gnu_tools_for_arm/11.3_rel1/bin/../lib/gcc/arm-none-eabi/11.3.1/thumb/v7-m/nofp\libm.a(libm_a-e_sqrt.o)
                                                  i:/mcu/gnu_tools_for_arm/11.3_rel1/bin/../lib/gcc/arm-none-eabi/11.3.1/thumb/v7-m/nofp\libm.a(libm_a-w_sqrt.o)
                                                  build/Ra_calculate.o
                                                  build/ColorTemperature.o
__aeabi_dmul                                      i:/mcu/gnu_tools_for_arm/11.3_rel1/bin/../lib/gcc/arm-none-eabi/11.3.1/thumb/v7-m/nofp\libgcc.a(_arm_muldivdf3.o)
                                                  i:/mcu/gnu_tools_for_arm/11.3_rel1/bin/../lib/gcc/arm-none-eabi/11.3.1/thumb/v7-m/nofp\libgcc.a(_arm_muldf3.o)
                                                  i:/mcu/gnu_tools_for_arm/11.3_rel1/bin/../lib/gcc/arm-none-eabi/11.3.1/thumb/v7-m/nofp\libm.a(libm_a-math_err.o)
                                                  i:/mcu/gnu_tools_for_arm/11.3_rel1/bin/../lib/gcc/arm-none-eabi/11.3.1/thumb/v7-m/nofp\libm.a(libm_a-s_scalbn.o)
                                                  i:/mcu/gnu_tools_for_arm/11.3_rel1/bin/../lib/gcc/arm-none-eabi/11.3.1/thumb/v7-m/nofp\libm.a(libm_a-e_pow.o)
                                                  i:/mcu/gnu_tools_for_arm/11.3_rel1/bin/../lib/gcc/arm-none-eabi/11.3.1/thumb/v7-m/nofp\libm.a(libm_a-e_sqrt.o)
                                                  build/Ra_calculate.o
                                                  build/ColorTemperature.o
__aeabi_drsub                                     i:/mcu/gnu_tools_for_arm/11.3_rel1/bin/../lib/gcc/arm-none-eabi/11.3.1/thumb/v7-m/nofp\libgcc.a(_arm_addsubdf3.o)
__aeabi_dsub                                      i:/mcu/gnu_tools_for_arm/11.3_rel1/bin/../lib/gcc/arm-none-eabi/11.3.1/thumb/v7-m/nofp\libgcc.a(_arm_addsubdf3.o)
                                                  i:/mcu/gnu_tools_for_arm/11.3_rel1/bin/../lib/gcc/arm-none-eabi/11.3.1/thumb/v7-m/nofp\libm.a(libm_a-math_err.o)
                                                  i:/mcu/gnu_tools_for_arm/11.3_rel1/bin/../lib/gcc/arm-none-eabi/11.3.1/thumb/v7-m/nofp\libm.a(libm_a-e_pow.o)
                                                  i:/mcu/gnu_tools_for_arm/11.3_rel1/bin/../lib/gcc/arm-none-eabi/11.3.1/thumb/v7-m/nofp\libm.a(libm_a-e_sqrt.o)
                                                  build/Ra_calculate.o
                                                  build/ColorTemperature.o
__aeabi_f2d                                       i:/mcu/gnu_tools_for_arm/11.3_rel1/bin/../lib/gcc/arm-none-eabi/11.3.1/thumb/v7-m/nofp\libgcc.a(_arm_addsubdf3.o)
                                                  build/Ra_calculate.o
                                                  build/ColorTemperature.o
__aeabi_f2uiz                                     i:/mcu/gnu_tools_for_arm/11.3_rel1/bin/../lib/gcc/arm-none-eabi/11.3.1/thumb/v7-m/nofp\libgcc.a(_arm_fixunssfsi.o)
                                                  build/ColorTemperature.o
__aeabi_fadd                                      i:/mcu/gnu_tools_for_arm/11.3_rel1/bin/../lib/gcc/arm-none-eabi/11.3.1/thumb/v7-m/nofp\libgcc.a(_arm_addsubsf3.o)
                                                  build/Ra_calculate.o
                                                  build/ColorTemperature.o
__aeabi_fcmpeq                                    i:/mcu/gnu_tools_for_arm/11.3_rel1/bin/../lib/gcc/arm-none-eabi/11.3.1/thumb/v7-m/nofp\libgcc.a(_arm_cmpsf2.o)
                                                  build/ColorTemperature.o
__aeabi_fcmpge                                    i:/mcu/gnu_tools_for_arm/11.3_rel1/bin/../lib/gcc/arm-none-eabi/11.3.1/thumb/v7-m/nofp\libgcc.a(_arm_cmpsf2.o)
__aeabi_fcmpgt                                    i:/mcu/gnu_tools_for_arm/11.3_rel1/bin/../lib/gcc/arm-none-eabi/11.3.1/thumb/v7-m/nofp\libgcc.a(_arm_cmpsf2.o)
__aeabi_fcmple                                    i:/mcu/gnu_tools_for_arm/11.3_rel1/bin/../lib/gcc/arm-none-eabi/11.3.1/thumb/v7-m/nofp\libgcc.a(_arm_cmpsf2.o)
__aeabi_fcmplt                                    i:/mcu/gnu_tools_for_arm/11.3_rel1/bin/../lib/gcc/arm-none-eabi/11.3.1/thumb/v7-m/nofp\libgcc.a(_arm_cmpsf2.o)
__aeabi_fdiv                                      i:/mcu/gnu_tools_for_arm/11.3_rel1/bin/../lib/gcc/arm-none-eabi/11.3.1/thumb/v7-m/nofp\libgcc.a(_arm_muldivsf3.o)
                                                  build/Ra_calculate.o
                                                  build/ColorTemperature.o
__aeabi_fmul                                      i:/mcu/gnu_tools_for_arm/11.3_rel1/bin/../lib/gcc/arm-none-eabi/11.3.1/thumb/v7-m/nofp\libgcc.a(_arm_muldivsf3.o)
                                                  i:/mcu/gnu_tools_for_arm/11.3_rel1/bin/../lib/gcc/arm-none-eabi/11.3.1/thumb/v7-m/nofp\libgcc.a(_arm_mulsf3.o)
                                                  build/Ra_calculate.o
                                                  build/ColorTemperature.o
__aeabi_frsub                                     i:/mcu/gnu_tools_for_arm/11.3_rel1/bin/../lib/gcc/arm-none-eabi/11.3.1/thumb/v7-m/nofp\libgcc.a(_arm_addsubsf3.o)
__aeabi_fsub                                      i:/mcu/gnu_tools_for_arm/11.3_rel1/bin/../lib/gcc/arm-none-eabi/11.3.1/thumb/v7-m/nofp\libgcc.a(_arm_addsubsf3.o)
                                                  build/Ra_calculate.o
__aeabi_i2d                                       i:/mcu/gnu_tools_for_arm/11.3_rel1/bin/../lib/gcc/arm-none-eabi/11.3.1/thumb/v7-m/nofp\libgcc.a(_arm_addsubdf3.o)
                                                  i:/mcu/gnu_tools_for_arm/11.3_rel1/bin/../lib/gcc/arm-none-eabi/11.3.1/thumb/v7-m/nofp\libm.a(libm_a-e_pow.o)
                                                  build/Ra_calculate.o
                                                  build/ColorTemperature.o
__aeabi_i2f                                       i:/mcu/gnu_tools_for_arm/11.3_rel1/bin/../lib/gcc/arm-none-eabi/11.3.1/thumb/v7-m/nofp\libgcc.a(_arm_addsubsf3.o)
                                                  build/Ra_calculate.o
__aeabi_l2d                                       i:/mcu/gnu_tools_for_arm/11.3_rel1/bin/../lib/gcc/arm-none-eabi/11.3.1/thumb/v7-m/nofp\libgcc.a(_arm_addsubdf3.o)
__aeabi_l2f                                       i:/mcu/gnu_tools_for_arm/11.3_rel1/bin/../lib/gcc/arm-none-eabi/11.3.1/thumb/v7-m/nofp\libgcc.a(_arm_addsubsf3.o)
__aeabi_ui2d                                      i:/mcu/gnu_tools_for_arm/11.3_rel1/bin/../lib/gcc/arm-none-eabi/11.3.1/thumb/v7-m/nofp\libgcc.a(_arm_addsubdf3.o)
                                                  build/Ra_calculate.o
__aeabi_ui2f                                      i:/mcu/gnu_tools_for_arm/11.3_rel1/bin/../lib/gcc/arm-none-eabi/11.3.1/thumb/v7-m/nofp\libgcc.a(_arm_addsubsf3.o)
__aeabi_ul2d                                      i:/mcu/gnu_tools_for_arm/11.3_rel1/bin/../lib/gcc/arm-none-eabi/11.3.1/thumb/v7-m/nofp\libgcc.a(_arm_addsubdf3.o)
__aeabi_ul2f                                      i:/mcu/gnu_tools_for_arm/11.3_rel1/bin/../lib/gcc/arm-none-eabi/11.3.1/thumb/v7-m/nofp\libgcc.a(_arm_addsubsf3.o)
__bss_end__                                       i:/mcu/gnu_tools_for_arm/11.3_rel1/bin/../lib/gcc/arm-none-eabi/11.3.1/thumb/v7-m/nofp/crt0.o
__bss_start__                                     i:/mcu/gnu_tools_for_arm/11.3_rel1/bin/../lib/gcc/arm-none-eabi/11.3.1/thumb/v7-m/nofp/crt0.o
__call_exitprocs                                  i:/mcu/gnu_tools_for_arm/11.3_rel1/bin/../lib/gcc/arm-none-eabi/11.3.1/thumb/v7-m/nofp\libc_nano.a(libc_a-exit.o)
__cmpdf2                                          i:/mcu/gnu_tools_for_arm/11.3_rel1/bin/../lib/gcc/arm-none-eabi/11.3.1/thumb/v7-m/nofp\libgcc.a(_arm_cmpdf2.o)
__cmpsf2                                          i:/mcu/gnu_tools_for_arm/11.3_rel1/bin/../lib/gcc/arm-none-eabi/11.3.1/thumb/v7-m/nofp\libgcc.a(_arm_cmpsf2.o)
__deregister_frame_info                           i:/mcu/gnu_tools_for_arm/11.3_rel1/bin/../lib/gcc/arm-none-eabi/11.3.1/thumb/v7-m/nofp/crtbegin.o
__divdf3                                          i:/mcu/gnu_tools_for_arm/11.3_rel1/bin/../lib/gcc/arm-none-eabi/11.3.1/thumb/v7-m/nofp\libgcc.a(_arm_muldivdf3.o)
__divsf3                                          i:/mcu/gnu_tools_for_arm/11.3_rel1/bin/../lib/gcc/arm-none-eabi/11.3.1/thumb/v7-m/nofp\libgcc.a(_arm_muldivsf3.o)
__dso_handle                                      i:/mcu/gnu_tools_for_arm/11.3_rel1/bin/../lib/gcc/arm-none-eabi/11.3.1/thumb/v7-m/nofp/crtbegin.o
__eqdf2                                           i:/mcu/gnu_tools_for_arm/11.3_rel1/bin/../lib/gcc/arm-none-eabi/11.3.1/thumb/v7-m/nofp\libgcc.a(_arm_cmpdf2.o)
__eqsf2                                           i:/mcu/gnu_tools_for_arm/11.3_rel1/bin/../lib/gcc/arm-none-eabi/11.3.1/thumb/v7-m/nofp\libgcc.a(_arm_cmpsf2.o)
__errno                                           i:/mcu/gnu_tools_for_arm/11.3_rel1/bin/../lib/gcc/arm-none-eabi/11.3.1/thumb/v7-m/nofp\libc_nano.a(libc_a-errno.o)
                                                  i:/mcu/gnu_tools_for_arm/11.3_rel1/bin/../lib/gcc/arm-none-eabi/11.3.1/thumb/v7-m/nofp\libm.a(libm_a-math_err.o)
                                                  i:/mcu/gnu_tools_for_arm/11.3_rel1/bin/../lib/gcc/arm-none-eabi/11.3.1/thumb/v7-m/nofp\libm.a(libm_a-w_sqrt.o)
                                                  i:/mcu/gnu_tools_for_arm/11.3_rel1/bin/../lib/gcc/arm-none-eabi/11.3.1/thumb/v7-m/nofp\libm.a(libm_a-w_pow.o)
                                                  build/retarget.o
__extendsfdf2                                     i:/mcu/gnu_tools_for_arm/11.3_rel1/bin/../lib/gcc/arm-none-eabi/11.3.1/thumb/v7-m/nofp\libgcc.a(_arm_addsubdf3.o)
__fixunssfsi                                      i:/mcu/gnu_tools_for_arm/11.3_rel1/bin/../lib/gcc/arm-none-eabi/11.3.1/thumb/v7-m/nofp\libgcc.a(_arm_fixunssfsi.o)
__floatdidf                                       i:/mcu/gnu_tools_for_arm/11.3_rel1/bin/../lib/gcc/arm-none-eabi/11.3.1/thumb/v7-m/nofp\libgcc.a(_arm_addsubdf3.o)
__floatdisf                                       i:/mcu/gnu_tools_for_arm/11.3_rel1/bin/../lib/gcc/arm-none-eabi/11.3.1/thumb/v7-m/nofp\libgcc.a(_arm_addsubsf3.o)
__floatsidf                                       i:/mcu/gnu_tools_for_arm/11.3_rel1/bin/../lib/gcc/arm-none-eabi/11.3.1/thumb/v7-m/nofp\libgcc.a(_arm_addsubdf3.o)
__floatsisf                                       i:/mcu/gnu_tools_for_arm/11.3_rel1/bin/../lib/gcc/arm-none-eabi/11.3.1/thumb/v7-m/nofp\libgcc.a(_arm_addsubsf3.o)
__floatundidf                                     i:/mcu/gnu_tools_for_arm/11.3_rel1/bin/../lib/gcc/arm-none-eabi/11.3.1/thumb/v7-m/nofp\libgcc.a(_arm_addsubdf3.o)
__floatundisf                                     i:/mcu/gnu_tools_for_arm/11.3_rel1/bin/../lib/gcc/arm-none-eabi/11.3.1/thumb/v7-m/nofp\libgcc.a(_arm_addsubsf3.o)
__floatunsidf                                     i:/mcu/gnu_tools_for_arm/11.3_rel1/bin/../lib/gcc/arm-none-eabi/11.3.1/thumb/v7-m/nofp\libgcc.a(_arm_addsubdf3.o)
__floatunsisf                                     i:/mcu/gnu_tools_for_arm/11.3_rel1/bin/../lib/gcc/arm-none-eabi/11.3.1/thumb/v7-m/nofp\libgcc.a(_arm_addsubsf3.o)
__fp_lock_all                                     i:/mcu/gnu_tools_for_arm/11.3_rel1/bin/../lib/gcc/arm-none-eabi/11.3.1/thumb/v7-m/nofp\libc_nano.a(libc_a-findfp.o)
__fp_unlock_all                                   i:/mcu/gnu_tools_for_arm/11.3_rel1/bin/../lib/gcc/arm-none-eabi/11.3.1/thumb/v7-m/nofp\libc_nano.a(libc_a-findfp.o)
__gedf2                                           i:/mcu/gnu_tools_for_arm/11.3_rel1/bin/../lib/gcc/arm-none-eabi/11.3.1/thumb/v7-m/nofp\libgcc.a(_arm_cmpdf2.o)
__gesf2                                           i:/mcu/gnu_tools_for_arm/11.3_rel1/bin/../lib/gcc/arm-none-eabi/11.3.1/thumb/v7-m/nofp\libgcc.a(_arm_cmpsf2.o)
__gtdf2                                           i:/mcu/gnu_tools_for_arm/11.3_rel1/bin/../lib/gcc/arm-none-eabi/11.3.1/thumb/v7-m/nofp\libgcc.a(_arm_cmpdf2.o)
__gtsf2                                           i:/mcu/gnu_tools_for_arm/11.3_rel1/bin/../lib/gcc/arm-none-eabi/11.3.1/thumb/v7-m/nofp\libgcc.a(_arm_cmpsf2.o)
__ieee754_pow                                     i:/mcu/gnu_tools_for_arm/11.3_rel1/bin/../lib/gcc/arm-none-eabi/11.3.1/thumb/v7-m/nofp\libm.a(libm_a-e_pow.o)
                                                  i:/mcu/gnu_tools_for_arm/11.3_rel1/bin/../lib/gcc/arm-none-eabi/11.3.1/thumb/v7-m/nofp\libm.a(libm_a-w_pow.o)
__ieee754_sqrt                                    i:/mcu/gnu_tools_for_arm/11.3_rel1/bin/../lib/gcc/arm-none-eabi/11.3.1/thumb/v7-m/nofp\libm.a(libm_a-e_sqrt.o)
                                                  i:/mcu/gnu_tools_for_arm/11.3_rel1/bin/../lib/gcc/arm-none-eabi/11.3.1/thumb/v7-m/nofp\libm.a(libm_a-e_pow.o)
                                                  i:/mcu/gnu_tools_for_arm/11.3_rel1/bin/../lib/gcc/arm-none-eabi/11.3.1/thumb/v7-m/nofp\libm.a(libm_a-w_sqrt.o)
__init_array_end                                  i:/mcu/gnu_tools_for_arm/11.3_rel1/bin/../lib/gcc/arm-none-eabi/11.3.1/thumb/v7-m/nofp\libc_nano.a(libc_a-init.o)
__init_array_start                                i:/mcu/gnu_tools_for_arm/11.3_rel1/bin/../lib/gcc/arm-none-eabi/11.3.1/thumb/v7-m/nofp\libc_nano.a(libc_a-init.o)
__ledf2                                           i:/mcu/gnu_tools_for_arm/11.3_rel1/bin/../lib/gcc/arm-none-eabi/11.3.1/thumb/v7-m/nofp\libgcc.a(_arm_cmpdf2.o)
__lesf2                                           i:/mcu/gnu_tools_for_arm/11.3_rel1/bin/../lib/gcc/arm-none-eabi/11.3.1/thumb/v7-m/nofp\libgcc.a(_arm_cmpsf2.o)
__libc_fini_array                                 i:/mcu/gnu_tools_for_arm/11.3_rel1/bin/../lib/gcc/arm-none-eabi/11.3.1/thumb/v7-m/nofp/crt0.o
__libc_init_array                                 i:/mcu/gnu_tools_for_arm/11.3_rel1/bin/../lib/gcc/arm-none-eabi/11.3.1/thumb/v7-m/nofp\libc_nano.a(libc_a-init.o)
                                                  build/startup_stm32f103xe.o
                                                  i:/mcu/gnu_tools_for_arm/11.3_rel1/bin/../lib/gcc/arm-none-eabi/11.3.1/thumb/v7-m/nofp/crt0.o
__lock___arc4random_mutex                         i:/mcu/gnu_tools_for_arm/11.3_rel1/bin/../lib/gcc/arm-none-eabi/11.3.1/thumb/v7-m/nofp\libc_nano.a(libc_a-lock.o)
__lock___at_quick_exit_mutex                      i:/mcu/gnu_tools_for_arm/11.3_rel1/bin/../lib/gcc/arm-none-eabi/11.3.1/thumb/v7-m/nofp\libc_nano.a(libc_a-lock.o)
__lock___atexit_recursive_mutex                   i:/mcu/gnu_tools_for_arm/11.3_rel1/bin/../lib/gcc/arm-none-eabi/11.3.1/thumb/v7-m/nofp\libc_nano.a(libc_a-lock.o)
__lock___dd_hash_mutex                            i:/mcu/gnu_tools_for_arm/11.3_rel1/bin/../lib/gcc/arm-none-eabi/11.3.1/thumb/v7-m/nofp\libc_nano.a(libc_a-lock.o)
__lock___env_recursive_mutex                      i:/mcu/gnu_tools_for_arm/11.3_rel1/bin/../lib/gcc/arm-none-eabi/11.3.1/thumb/v7-m/nofp\libc_nano.a(libc_a-lock.o)
__lock___malloc_recursive_mutex                   i:/mcu/gnu_tools_for_arm/11.3_rel1/bin/../lib/gcc/arm-none-eabi/11.3.1/thumb/v7-m/nofp\libc_nano.a(libc_a-lock.o)
                                                  i:/mcu/gnu_tools_for_arm/11.3_rel1/bin/../lib/gcc/arm-none-eabi/11.3.1/thumb/v7-m/nofp\libc_nano.a(libc_a-mlock.o)
__lock___sfp_recursive_mutex                      i:/mcu/gnu_tools_for_arm/11.3_rel1/bin/../lib/gcc/arm-none-eabi/11.3.1/thumb/v7-m/nofp\libc_nano.a(libc_a-lock.o)
                                                  i:/mcu/gnu_tools_for_arm/11.3_rel1/bin/../lib/gcc/arm-none-eabi/11.3.1/thumb/v7-m/nofp\libc_nano.a(libc_a-findfp.o)
__lock___tz_mutex                                 i:/mcu/gnu_tools_for_arm/11.3_rel1/bin/../lib/gcc/arm-none-eabi/11.3.1/thumb/v7-m/nofp\libc_nano.a(libc_a-lock.o)
__ltdf2                                           i:/mcu/gnu_tools_for_arm/11.3_rel1/bin/../lib/gcc/arm-none-eabi/11.3.1/thumb/v7-m/nofp\libgcc.a(_arm_cmpdf2.o)
__ltsf2                                           i:/mcu/gnu_tools_for_arm/11.3_rel1/bin/../lib/gcc/arm-none-eabi/11.3.1/thumb/v7-m/nofp\libgcc.a(_arm_cmpsf2.o)
__malloc_free_list                                i:/mcu/gnu_tools_for_arm/11.3_rel1/bin/../lib/gcc/arm-none-eabi/11.3.1/thumb/v7-m/nofp\libc_nano.a(libc_a-mallocr.o)
                                                  i:/mcu/gnu_tools_for_arm/11.3_rel1/bin/../lib/gcc/arm-none-eabi/11.3.1/thumb/v7-m/nofp\libc_nano.a(libc_a-freer.o)
__malloc_lock                                     i:/mcu/gnu_tools_for_arm/11.3_rel1/bin/../lib/gcc/arm-none-eabi/11.3.1/thumb/v7-m/nofp\libc_nano.a(libc_a-mlock.o)
                                                  i:/mcu/gnu_tools_for_arm/11.3_rel1/bin/../lib/gcc/arm-none-eabi/11.3.1/thumb/v7-m/nofp\libc_nano.a(libc_a-mallocr.o)
                                                  i:/mcu/gnu_tools_for_arm/11.3_rel1/bin/../lib/gcc/arm-none-eabi/11.3.1/thumb/v7-m/nofp\libc_nano.a(libc_a-freer.o)
__malloc_sbrk_start                               i:/mcu/gnu_tools_for_arm/11.3_rel1/bin/../lib/gcc/arm-none-eabi/11.3.1/thumb/v7-m/nofp\libc_nano.a(libc_a-mallocr.o)
__malloc_unlock                                   i:/mcu/gnu_tools_for_arm/11.3_rel1/bin/../lib/gcc/arm-none-eabi/11.3.1/thumb/v7-m/nofp\libc_nano.a(libc_a-mlock.o)
                                                  i:/mcu/gnu_tools_for_arm/11.3_rel1/bin/../lib/gcc/arm-none-eabi/11.3.1/thumb/v7-m/nofp\libc_nano.a(libc_a-mallocr.o)
                                                  i:/mcu/gnu_tools_for_arm/11.3_rel1/bin/../lib/gcc/arm-none-eabi/11.3.1/thumb/v7-m/nofp\libc_nano.a(libc_a-freer.o)
__math_check_oflow                                i:/mcu/gnu_tools_for_arm/11.3_rel1/bin/../lib/gcc/arm-none-eabi/11.3.1/thumb/v7-m/nofp\libm.a(libm_a-math_err.o)
__math_check_uflow                                i:/mcu/gnu_tools_for_arm/11.3_rel1/bin/../lib/gcc/arm-none-eabi/11.3.1/thumb/v7-m/nofp\libm.a(libm_a-math_err.o)
__math_divzero                                    i:/mcu/gnu_tools_for_arm/11.3_rel1/bin/../lib/gcc/arm-none-eabi/11.3.1/thumb/v7-m/nofp\libm.a(libm_a-math_err.o)
__math_invalid                                    i:/mcu/gnu_tools_for_arm/11.3_rel1/bin/../lib/gcc/arm-none-eabi/11.3.1/thumb/v7-m/nofp\libm.a(libm_a-math_err.o)
__math_may_uflow                                  i:/mcu/gnu_tools_for_arm/11.3_rel1/bin/../lib/gcc/arm-none-eabi/11.3.1/thumb/v7-m/nofp\libm.a(libm_a-math_err.o)
__math_oflow                                      i:/mcu/gnu_tools_for_arm/11.3_rel1/bin/../lib/gcc/arm-none-eabi/11.3.1/thumb/v7-m/nofp\libm.a(libm_a-math_err.o)
                                                  i:/mcu/gnu_tools_for_arm/11.3_rel1/bin/../lib/gcc/arm-none-eabi/11.3.1/thumb/v7-m/nofp\libm.a(libm_a-e_pow.o)
__math_uflow                                      i:/mcu/gnu_tools_for_arm/11.3_rel1/bin/../lib/gcc/arm-none-eabi/11.3.1/thumb/v7-m/nofp\libm.a(libm_a-math_err.o)
                                                  i:/mcu/gnu_tools_for_arm/11.3_rel1/bin/../lib/gcc/arm-none-eabi/11.3.1/thumb/v7-m/nofp\libm.a(libm_a-e_pow.o)
__muldf3                                          i:/mcu/gnu_tools_for_arm/11.3_rel1/bin/../lib/gcc/arm-none-eabi/11.3.1/thumb/v7-m/nofp\libgcc.a(_arm_muldivdf3.o)
                                                  i:/mcu/gnu_tools_for_arm/11.3_rel1/bin/../lib/gcc/arm-none-eabi/11.3.1/thumb/v7-m/nofp\libgcc.a(_arm_muldf3.o)
__mulsf3                                          i:/mcu/gnu_tools_for_arm/11.3_rel1/bin/../lib/gcc/arm-none-eabi/11.3.1/thumb/v7-m/nofp\libgcc.a(_arm_muldivsf3.o)
                                                  i:/mcu/gnu_tools_for_arm/11.3_rel1/bin/../lib/gcc/arm-none-eabi/11.3.1/thumb/v7-m/nofp\libgcc.a(_arm_mulsf3.o)
__nedf2                                           i:/mcu/gnu_tools_for_arm/11.3_rel1/bin/../lib/gcc/arm-none-eabi/11.3.1/thumb/v7-m/nofp\libgcc.a(_arm_cmpdf2.o)
__nesf2                                           i:/mcu/gnu_tools_for_arm/11.3_rel1/bin/../lib/gcc/arm-none-eabi/11.3.1/thumb/v7-m/nofp\libgcc.a(_arm_cmpsf2.o)
__preinit_array_end                               i:/mcu/gnu_tools_for_arm/11.3_rel1/bin/../lib/gcc/arm-none-eabi/11.3.1/thumb/v7-m/nofp\libc_nano.a(libc_a-init.o)
__preinit_array_start                             i:/mcu/gnu_tools_for_arm/11.3_rel1/bin/../lib/gcc/arm-none-eabi/11.3.1/thumb/v7-m/nofp\libc_nano.a(libc_a-init.o)
__register_frame_info                             i:/mcu/gnu_tools_for_arm/11.3_rel1/bin/../lib/gcc/arm-none-eabi/11.3.1/thumb/v7-m/nofp/crtbegin.o
__retarget_lock_acquire                           i:/mcu/gnu_tools_for_arm/11.3_rel1/bin/../lib/gcc/arm-none-eabi/11.3.1/thumb/v7-m/nofp\libc_nano.a(libc_a-lock.o)
__retarget_lock_acquire_recursive                 i:/mcu/gnu_tools_for_arm/11.3_rel1/bin/../lib/gcc/arm-none-eabi/11.3.1/thumb/v7-m/nofp\libc_nano.a(libc_a-lock.o)
                                                  i:/mcu/gnu_tools_for_arm/11.3_rel1/bin/../lib/gcc/arm-none-eabi/11.3.1/thumb/v7-m/nofp\libc_nano.a(libc_a-fflush.o)
                                                  i:/mcu/gnu_tools_for_arm/11.3_rel1/bin/../lib/gcc/arm-none-eabi/11.3.1/thumb/v7-m/nofp\libc_nano.a(libc_a-nano-vfprintf.o)
                                                  i:/mcu/gnu_tools_for_arm/11.3_rel1/bin/../lib/gcc/arm-none-eabi/11.3.1/thumb/v7-m/nofp\libc_nano.a(libc_a-mlock.o)
                                                  i:/mcu/gnu_tools_for_arm/11.3_rel1/bin/../lib/gcc/arm-none-eabi/11.3.1/thumb/v7-m/nofp\libc_nano.a(libc_a-setvbuf.o)
                                                  i:/mcu/gnu_tools_for_arm/11.3_rel1/bin/../lib/gcc/arm-none-eabi/11.3.1/thumb/v7-m/nofp\libc_nano.a(libc_a-puts.o)
                                                  i:/mcu/gnu_tools_for_arm/11.3_rel1/bin/../lib/gcc/arm-none-eabi/11.3.1/thumb/v7-m/nofp\libc_nano.a(libc_a-findfp.o)
__retarget_lock_close                             i:/mcu/gnu_tools_for_arm/11.3_rel1/bin/../lib/gcc/arm-none-eabi/11.3.1/thumb/v7-m/nofp\libc_nano.a(libc_a-lock.o)
__retarget_lock_close_recursive                   i:/mcu/gnu_tools_for_arm/11.3_rel1/bin/../lib/gcc/arm-none-eabi/11.3.1/thumb/v7-m/nofp\libc_nano.a(libc_a-lock.o)
__retarget_lock_init                              i:/mcu/gnu_tools_for_arm/11.3_rel1/bin/../lib/gcc/arm-none-eabi/11.3.1/thumb/v7-m/nofp\libc_nano.a(libc_a-lock.o)
__retarget_lock_init_recursive                    i:/mcu/gnu_tools_for_arm/11.3_rel1/bin/../lib/gcc/arm-none-eabi/11.3.1/thumb/v7-m/nofp\libc_nano.a(libc_a-lock.o)
                                                  i:/mcu/gnu_tools_for_arm/11.3_rel1/bin/../lib/gcc/arm-none-eabi/11.3.1/thumb/v7-m/nofp\libc_nano.a(libc_a-findfp.o)
__retarget_lock_release                           i:/mcu/gnu_tools_for_arm/11.3_rel1/bin/../lib/gcc/arm-none-eabi/11.3.1/thumb/v7-m/nofp\libc_nano.a(libc_a-lock.o)
__retarget_lock_release_recursive                 i:/mcu/gnu_tools_for_arm/11.3_rel1/bin/../lib/gcc/arm-none-eabi/11.3.1/thumb/v7-m/nofp\libc_nano.a(libc_a-lock.o)
                                                  i:/mcu/gnu_tools_for_arm/11.3_rel1/bin/../lib/gcc/arm-none-eabi/11.3.1/thumb/v7-m/nofp\libc_nano.a(libc_a-fflush.o)
                                                  i:/mcu/gnu_tools_for_arm/11.3_rel1/bin/../lib/gcc/arm-none-eabi/11.3.1/thumb/v7-m/nofp\libc_nano.a(libc_a-nano-vfprintf.o)
                                                  i:/mcu/gnu_tools_for_arm/11.3_rel1/bin/../lib/gcc/arm-none-eabi/11.3.1/thumb/v7-m/nofp\libc_nano.a(libc_a-mlock.o)
                                                  i:/mcu/gnu_tools_for_arm/11.3_rel1/bin/../lib/gcc/arm-none-eabi/11.3.1/thumb/v7-m/nofp\libc_nano.a(libc_a-setvbuf.o)
                                                  i:/mcu/gnu_tools_for_arm/11.3_rel1/bin/../lib/gcc/arm-none-eabi/11.3.1/thumb/v7-m/nofp\libc_nano.a(libc_a-puts.o)
                                                  i:/mcu/gnu_tools_for_arm/11.3_rel1/bin/../lib/gcc/arm-none-eabi/11.3.1/thumb/v7-m/nofp\libc_nano.a(libc_a-findfp.o)
__retarget_lock_try_acquire                       i:/mcu/gnu_tools_for_arm/11.3_rel1/bin/../lib/gcc/arm-none-eabi/11.3.1/thumb/v7-m/nofp\libc_nano.a(libc_a-lock.o)
__retarget_lock_try_acquire_recursive             i:/mcu/gnu_tools_for_arm/11.3_rel1/bin/../lib/gcc/arm-none-eabi/11.3.1/thumb/v7-m/nofp\libc_nano.a(libc_a-lock.o)
__sclose                                          i:/mcu/gnu_tools_for_arm/11.3_rel1/bin/../lib/gcc/arm-none-eabi/11.3.1/thumb/v7-m/nofp\libc_nano.a(libc_a-stdio.o)
                                                  i:/mcu/gnu_tools_for_arm/11.3_rel1/bin/../lib/gcc/arm-none-eabi/11.3.1/thumb/v7-m/nofp\libc_nano.a(libc_a-findfp.o)
__seofread                                        i:/mcu/gnu_tools_for_arm/11.3_rel1/bin/../lib/gcc/arm-none-eabi/11.3.1/thumb/v7-m/nofp\libc_nano.a(libc_a-stdio.o)
__sf                                              i:/mcu/gnu_tools_for_arm/11.3_rel1/bin/../lib/gcc/arm-none-eabi/11.3.1/thumb/v7-m/nofp\libc_nano.a(libc_a-findfp.o)
                                                  i:/mcu/gnu_tools_for_arm/11.3_rel1/bin/../lib/gcc/arm-none-eabi/11.3.1/thumb/v7-m/nofp\libc_nano.a(libc_a-impure.o)
__sflush_r                                        i:/mcu/gnu_tools_for_arm/11.3_rel1/bin/../lib/gcc/arm-none-eabi/11.3.1/thumb/v7-m/nofp\libc_nano.a(libc_a-fflush.o)
__sfp                                             i:/mcu/gnu_tools_for_arm/11.3_rel1/bin/../lib/gcc/arm-none-eabi/11.3.1/thumb/v7-m/nofp\libc_nano.a(libc_a-findfp.o)
__sfp_lock_acquire                                i:/mcu/gnu_tools_for_arm/11.3_rel1/bin/../lib/gcc/arm-none-eabi/11.3.1/thumb/v7-m/nofp\libc_nano.a(libc_a-findfp.o)
__sfp_lock_release                                i:/mcu/gnu_tools_for_arm/11.3_rel1/bin/../lib/gcc/arm-none-eabi/11.3.1/thumb/v7-m/nofp\libc_nano.a(libc_a-findfp.o)
__sfputs_r                                        i:/mcu/gnu_tools_for_arm/11.3_rel1/bin/../lib/gcc/arm-none-eabi/11.3.1/thumb/v7-m/nofp\libc_nano.a(libc_a-nano-vfprintf.o)
__sfvwrite_r                                      i:/mcu/gnu_tools_for_arm/11.3_rel1/bin/../lib/gcc/arm-none-eabi/11.3.1/thumb/v7-m/nofp\libc_nano.a(libc_a-fvwrite.o)
                                                  i:/mcu/gnu_tools_for_arm/11.3_rel1/bin/../lib/gcc/arm-none-eabi/11.3.1/thumb/v7-m/nofp\libc_nano.a(libc_a-nano-vfprintf.o)
__sglue                                           i:/mcu/gnu_tools_for_arm/11.3_rel1/bin/../lib/gcc/arm-none-eabi/11.3.1/thumb/v7-m/nofp\libc_nano.a(libc_a-findfp.o)
                                                  i:/mcu/gnu_tools_for_arm/11.3_rel1/bin/../lib/gcc/arm-none-eabi/11.3.1/thumb/v7-m/nofp\libc_nano.a(libc_a-fflush.o)
__sinit                                           i:/mcu/gnu_tools_for_arm/11.3_rel1/bin/../lib/gcc/arm-none-eabi/11.3.1/thumb/v7-m/nofp\libc_nano.a(libc_a-findfp.o)
                                                  i:/mcu/gnu_tools_for_arm/11.3_rel1/bin/../lib/gcc/arm-none-eabi/11.3.1/thumb/v7-m/nofp\libc_nano.a(libc_a-fflush.o)
                                                  i:/mcu/gnu_tools_for_arm/11.3_rel1/bin/../lib/gcc/arm-none-eabi/11.3.1/thumb/v7-m/nofp\libc_nano.a(libc_a-nano-vfprintf.o)
                                                  i:/mcu/gnu_tools_for_arm/11.3_rel1/bin/../lib/gcc/arm-none-eabi/11.3.1/thumb/v7-m/nofp\libc_nano.a(libc_a-wsetup.o)
                                                  i:/mcu/gnu_tools_for_arm/11.3_rel1/bin/../lib/gcc/arm-none-eabi/11.3.1/thumb/v7-m/nofp\libc_nano.a(libc_a-wbuf.o)
                                                  i:/mcu/gnu_tools_for_arm/11.3_rel1/bin/../lib/gcc/arm-none-eabi/11.3.1/thumb/v7-m/nofp\libc_nano.a(libc_a-setvbuf.o)
                                                  i:/mcu/gnu_tools_for_arm/11.3_rel1/bin/../lib/gcc/arm-none-eabi/11.3.1/thumb/v7-m/nofp\libc_nano.a(libc_a-puts.o)
__smakebuf_r                                      i:/mcu/gnu_tools_for_arm/11.3_rel1/bin/../lib/gcc/arm-none-eabi/11.3.1/thumb/v7-m/nofp\libc_nano.a(libc_a-makebuf.o)
                                                  i:/mcu/gnu_tools_for_arm/11.3_rel1/bin/../lib/gcc/arm-none-eabi/11.3.1/thumb/v7-m/nofp\libc_nano.a(libc_a-wsetup.o)
__sprint_r                                        i:/mcu/gnu_tools_for_arm/11.3_rel1/bin/../lib/gcc/arm-none-eabi/11.3.1/thumb/v7-m/nofp\libc_nano.a(libc_a-nano-vfprintf.o)
__sread                                           i:/mcu/gnu_tools_for_arm/11.3_rel1/bin/../lib/gcc/arm-none-eabi/11.3.1/thumb/v7-m/nofp\libc_nano.a(libc_a-stdio.o)
                                                  i:/mcu/gnu_tools_for_arm/11.3_rel1/bin/../lib/gcc/arm-none-eabi/11.3.1/thumb/v7-m/nofp\libc_nano.a(libc_a-findfp.o)
__sseek                                           i:/mcu/gnu_tools_for_arm/11.3_rel1/bin/../lib/gcc/arm-none-eabi/11.3.1/thumb/v7-m/nofp\libc_nano.a(libc_a-stdio.o)
                                                  i:/mcu/gnu_tools_for_arm/11.3_rel1/bin/../lib/gcc/arm-none-eabi/11.3.1/thumb/v7-m/nofp\libc_nano.a(libc_a-findfp.o)
__stack                                           i:/mcu/gnu_tools_for_arm/11.3_rel1/bin/../lib/gcc/arm-none-eabi/11.3.1/thumb/v7-m/nofp/crt0.o
__stdio_exit_handler                              i:/mcu/gnu_tools_for_arm/11.3_rel1/bin/../lib/gcc/arm-none-eabi/11.3.1/thumb/v7-m/nofp\libc_nano.a(libc_a-findfp.o)
                                                  i:/mcu/gnu_tools_for_arm/11.3_rel1/bin/../lib/gcc/arm-none-eabi/11.3.1/thumb/v7-m/nofp\libc_nano.a(libc_a-exit.o)
__subdf3                                          i:/mcu/gnu_tools_for_arm/11.3_rel1/bin/../lib/gcc/arm-none-eabi/11.3.1/thumb/v7-m/nofp\libgcc.a(_arm_addsubdf3.o)
__subsf3                                          i:/mcu/gnu_tools_for_arm/11.3_rel1/bin/../lib/gcc/arm-none-eabi/11.3.1/thumb/v7-m/nofp\libgcc.a(_arm_addsubsf3.o)
__swbuf                                           i:/mcu/gnu_tools_for_arm/11.3_rel1/bin/../lib/gcc/arm-none-eabi/11.3.1/thumb/v7-m/nofp\libc_nano.a(libc_a-wbuf.o)
__swbuf_r                                         i:/mcu/gnu_tools_for_arm/11.3_rel1/bin/../lib/gcc/arm-none-eabi/11.3.1/thumb/v7-m/nofp\libc_nano.a(libc_a-wbuf.o)
                                                  i:/mcu/gnu_tools_for_arm/11.3_rel1/bin/../lib/gcc/arm-none-eabi/11.3.1/thumb/v7-m/nofp\libc_nano.a(libc_a-nano-vfprintf.o)
                                                  i:/mcu/gnu_tools_for_arm/11.3_rel1/bin/../lib/gcc/arm-none-eabi/11.3.1/thumb/v7-m/nofp\libc_nano.a(libc_a-puts.o)
__swhatbuf_r                                      i:/mcu/gnu_tools_for_arm/11.3_rel1/bin/../lib/gcc/arm-none-eabi/11.3.1/thumb/v7-m/nofp\libc_nano.a(libc_a-makebuf.o)
                                                  i:/mcu/gnu_tools_for_arm/11.3_rel1/bin/../lib/gcc/arm-none-eabi/11.3.1/thumb/v7-m/nofp\libc_nano.a(libc_a-setvbuf.o)
__swrite                                          i:/mcu/gnu_tools_for_arm/11.3_rel1/bin/../lib/gcc/arm-none-eabi/11.3.1/thumb/v7-m/nofp\libc_nano.a(libc_a-stdio.o)
                                                  i:/mcu/gnu_tools_for_arm/11.3_rel1/bin/../lib/gcc/arm-none-eabi/11.3.1/thumb/v7-m/nofp\libc_nano.a(libc_a-findfp.o)
__swsetup_r                                       i:/mcu/gnu_tools_for_arm/11.3_rel1/bin/../lib/gcc/arm-none-eabi/11.3.1/thumb/v7-m/nofp\libc_nano.a(libc_a-wsetup.o)
                                                  i:/mcu/gnu_tools_for_arm/11.3_rel1/bin/../lib/gcc/arm-none-eabi/11.3.1/thumb/v7-m/nofp\libc_nano.a(libc_a-fvwrite.o)
                                                  i:/mcu/gnu_tools_for_arm/11.3_rel1/bin/../lib/gcc/arm-none-eabi/11.3.1/thumb/v7-m/nofp\libc_nano.a(libc_a-nano-vfprintf.o)
                                                  i:/mcu/gnu_tools_for_arm/11.3_rel1/bin/../lib/gcc/arm-none-eabi/11.3.1/thumb/v7-m/nofp\libc_nano.a(libc_a-wbuf.o)
                                                  i:/mcu/gnu_tools_for_arm/11.3_rel1/bin/../lib/gcc/arm-none-eabi/11.3.1/thumb/v7-m/nofp\libc_nano.a(libc_a-puts.o)
__truncdfsf2                                      i:/mcu/gnu_tools_for_arm/11.3_rel1/bin/../lib/gcc/arm-none-eabi/11.3.1/thumb/v7-m/nofp\libgcc.a(_arm_truncdfsf2.o)
__unorddf2                                        i:/mcu/gnu_tools_for_arm/11.3_rel1/bin/../lib/gcc/arm-none-eabi/11.3.1/thumb/v7-m/nofp\libgcc.a(_arm_unorddf2.o)
_close                                            build/retarget.o
                                                  i:/mcu/gnu_tools_for_arm/11.3_rel1/bin/../lib/gcc/arm-none-eabi/11.3.1/thumb/v7-m/nofp\libc_nano.a(libc_a-closer.o)
_close_r                                          i:/mcu/gnu_tools_for_arm/11.3_rel1/bin/../lib/gcc/arm-none-eabi/11.3.1/thumb/v7-m/nofp\libc_nano.a(libc_a-closer.o)
                                                  i:/mcu/gnu_tools_for_arm/11.3_rel1/bin/../lib/gcc/arm-none-eabi/11.3.1/thumb/v7-m/nofp\libc_nano.a(libc_a-stdio.o)
_ebss                                             build/startup_stm32f103xe.o
_edata                                            build/startup_stm32f103xe.o
_estack                                           build/startup_stm32f103xe.o
_exit                                             i:/mcu/gnu_tools_for_arm/11.3_rel1/bin/../lib/gcc/arm-none-eabi/11.3.1/thumb/v7-m/nofp\libnosys.a(_exit.o)
                                                  i:/mcu/gnu_tools_for_arm/11.3_rel1/bin/../lib/gcc/arm-none-eabi/11.3.1/thumb/v7-m/nofp\libc_nano.a(libc_a-exit.o)
_fflush_r                                         i:/mcu/gnu_tools_for_arm/11.3_rel1/bin/../lib/gcc/arm-none-eabi/11.3.1/thumb/v7-m/nofp\libc_nano.a(libc_a-fflush.o)
                                                  i:/mcu/gnu_tools_for_arm/11.3_rel1/bin/../lib/gcc/arm-none-eabi/11.3.1/thumb/v7-m/nofp\libc_nano.a(libc_a-fvwrite.o)
                                                  i:/mcu/gnu_tools_for_arm/11.3_rel1/bin/../lib/gcc/arm-none-eabi/11.3.1/thumb/v7-m/nofp\libc_nano.a(libc_a-wbuf.o)
                                                  i:/mcu/gnu_tools_for_arm/11.3_rel1/bin/../lib/gcc/arm-none-eabi/11.3.1/thumb/v7-m/nofp\libc_nano.a(libc_a-setvbuf.o)
                                                  i:/mcu/gnu_tools_for_arm/11.3_rel1/bin/../lib/gcc/arm-none-eabi/11.3.1/thumb/v7-m/nofp\libc_nano.a(libc_a-findfp.o)
_fini                                             i:/mcu/gnu_tools_for_arm/11.3_rel1/bin/../lib/gcc/arm-none-eabi/11.3.1/thumb/v7-m/nofp/crti.o
_free_r                                           i:/mcu/gnu_tools_for_arm/11.3_rel1/bin/../lib/gcc/arm-none-eabi/11.3.1/thumb/v7-m/nofp\libc_nano.a(libc_a-freer.o)
                                                  i:/mcu/gnu_tools_for_arm/11.3_rel1/bin/../lib/gcc/arm-none-eabi/11.3.1/thumb/v7-m/nofp\libc_nano.a(libc_a-reallocr.o)
                                                  i:/mcu/gnu_tools_for_arm/11.3_rel1/bin/../lib/gcc/arm-none-eabi/11.3.1/thumb/v7-m/nofp\libc_nano.a(libc_a-fvwrite.o)
                                                  i:/mcu/gnu_tools_for_arm/11.3_rel1/bin/../lib/gcc/arm-none-eabi/11.3.1/thumb/v7-m/nofp\libc_nano.a(libc_a-fflush.o)
                                                  i:/mcu/gnu_tools_for_arm/11.3_rel1/bin/../lib/gcc/arm-none-eabi/11.3.1/thumb/v7-m/nofp\libc_nano.a(libc_a-malloc.o)
                                                  i:/mcu/gnu_tools_for_arm/11.3_rel1/bin/../lib/gcc/arm-none-eabi/11.3.1/thumb/v7-m/nofp\libc_nano.a(libc_a-reent.o)
                                                  i:/mcu/gnu_tools_for_arm/11.3_rel1/bin/../lib/gcc/arm-none-eabi/11.3.1/thumb/v7-m/nofp\libc_nano.a(libc_a-wsetup.o)
                                                  i:/mcu/gnu_tools_for_arm/11.3_rel1/bin/../lib/gcc/arm-none-eabi/11.3.1/thumb/v7-m/nofp\libc_nano.a(libc_a-setvbuf.o)
_fstat                                            build/retarget.o
                                                  i:/mcu/gnu_tools_for_arm/11.3_rel1/bin/../lib/gcc/arm-none-eabi/11.3.1/thumb/v7-m/nofp\libc_nano.a(libc_a-fstatr.o)
_fstat_r                                          i:/mcu/gnu_tools_for_arm/11.3_rel1/bin/../lib/gcc/arm-none-eabi/11.3.1/thumb/v7-m/nofp\libc_nano.a(libc_a-fstatr.o)
                                                  i:/mcu/gnu_tools_for_arm/11.3_rel1/bin/../lib/gcc/arm-none-eabi/11.3.1/thumb/v7-m/nofp\libc_nano.a(libc_a-makebuf.o)
_fwalk_sglue                                      i:/mcu/gnu_tools_for_arm/11.3_rel1/bin/../lib/gcc/arm-none-eabi/11.3.1/thumb/v7-m/nofp\libc_nano.a(libc_a-fwalk.o)
                                                  i:/mcu/gnu_tools_for_arm/11.3_rel1/bin/../lib/gcc/arm-none-eabi/11.3.1/thumb/v7-m/nofp\libc_nano.a(libc_a-fflush.o)
                                                  i:/mcu/gnu_tools_for_arm/11.3_rel1/bin/../lib/gcc/arm-none-eabi/11.3.1/thumb/v7-m/nofp\libc_nano.a(libc_a-findfp.o)
_impure_data                                      i:/mcu/gnu_tools_for_arm/11.3_rel1/bin/../lib/gcc/arm-none-eabi/11.3.1/thumb/v7-m/nofp\libc_nano.a(libc_a-impure.o)
                                                  i:/mcu/gnu_tools_for_arm/11.3_rel1/bin/../lib/gcc/arm-none-eabi/11.3.1/thumb/v7-m/nofp\libc_nano.a(libc_a-fflush.o)
                                                  i:/mcu/gnu_tools_for_arm/11.3_rel1/bin/../lib/gcc/arm-none-eabi/11.3.1/thumb/v7-m/nofp\libc_nano.a(libc_a-findfp.o)
_impure_ptr                                       i:/mcu/gnu_tools_for_arm/11.3_rel1/bin/../lib/gcc/arm-none-eabi/11.3.1/thumb/v7-m/nofp\libc_nano.a(libc_a-impure.o)
                                                  i:/mcu/gnu_tools_for_arm/11.3_rel1/bin/../lib/gcc/arm-none-eabi/11.3.1/thumb/v7-m/nofp\libc_nano.a(libc_a-fflush.o)
                                                  i:/mcu/gnu_tools_for_arm/11.3_rel1/bin/../lib/gcc/arm-none-eabi/11.3.1/thumb/v7-m/nofp\libc_nano.a(libc_a-nano-vfprintf.o)
                                                  i:/mcu/gnu_tools_for_arm/11.3_rel1/bin/../lib/gcc/arm-none-eabi/11.3.1/thumb/v7-m/nofp\libc_nano.a(libc_a-malloc.o)
                                                  i:/mcu/gnu_tools_for_arm/11.3_rel1/bin/../lib/gcc/arm-none-eabi/11.3.1/thumb/v7-m/nofp\libc_nano.a(libc_a-errno.o)
                                                  i:/mcu/gnu_tools_for_arm/11.3_rel1/bin/../lib/gcc/arm-none-eabi/11.3.1/thumb/v7-m/nofp\libc_nano.a(libc_a-reent.o)
                                                  i:/mcu/gnu_tools_for_arm/11.3_rel1/bin/../lib/gcc/arm-none-eabi/11.3.1/thumb/v7-m/nofp\libc_nano.a(libc_a-wsetup.o)
                                                  i:/mcu/gnu_tools_for_arm/11.3_rel1/bin/../lib/gcc/arm-none-eabi/11.3.1/thumb/v7-m/nofp\libc_nano.a(libc_a-wbuf.o)
                                                  i:/mcu/gnu_tools_for_arm/11.3_rel1/bin/../lib/gcc/arm-none-eabi/11.3.1/thumb/v7-m/nofp\libc_nano.a(libc_a-setvbuf.o)
                                                  i:/mcu/gnu_tools_for_arm/11.3_rel1/bin/../lib/gcc/arm-none-eabi/11.3.1/thumb/v7-m/nofp\libc_nano.a(libc_a-puts.o)
                                                  i:/mcu/gnu_tools_for_arm/11.3_rel1/bin/../lib/gcc/arm-none-eabi/11.3.1/thumb/v7-m/nofp\libc_nano.a(libc_a-printf.o)
                                                  build/retarget.o
_init                                             i:/mcu/gnu_tools_for_arm/11.3_rel1/bin/../lib/gcc/arm-none-eabi/11.3.1/thumb/v7-m/nofp/crti.o
                                                  i:/mcu/gnu_tools_for_arm/11.3_rel1/bin/../lib/gcc/arm-none-eabi/11.3.1/thumb/v7-m/nofp\libc_nano.a(libc_a-init.o)
_iprintf_r                                        i:/mcu/gnu_tools_for_arm/11.3_rel1/bin/../lib/gcc/arm-none-eabi/11.3.1/thumb/v7-m/nofp\libc_nano.a(libc_a-printf.o)
_isatty                                           build/retarget.o
                                                  i:/mcu/gnu_tools_for_arm/11.3_rel1/bin/../lib/gcc/arm-none-eabi/11.3.1/thumb/v7-m/nofp\libc_nano.a(libc_a-isattyr.o)
_isatty_r                                         i:/mcu/gnu_tools_for_arm/11.3_rel1/bin/../lib/gcc/arm-none-eabi/11.3.1/thumb/v7-m/nofp\libc_nano.a(libc_a-isattyr.o)
                                                  i:/mcu/gnu_tools_for_arm/11.3_rel1/bin/../lib/gcc/arm-none-eabi/11.3.1/thumb/v7-m/nofp\libc_nano.a(libc_a-makebuf.o)
_lseek                                            build/retarget.o
                                                  i:/mcu/gnu_tools_for_arm/11.3_rel1/bin/../lib/gcc/arm-none-eabi/11.3.1/thumb/v7-m/nofp\libc_nano.a(libc_a-lseekr.o)
_lseek_r                                          i:/mcu/gnu_tools_for_arm/11.3_rel1/bin/../lib/gcc/arm-none-eabi/11.3.1/thumb/v7-m/nofp\libc_nano.a(libc_a-lseekr.o)
                                                  i:/mcu/gnu_tools_for_arm/11.3_rel1/bin/../lib/gcc/arm-none-eabi/11.3.1/thumb/v7-m/nofp\libc_nano.a(libc_a-stdio.o)
_mainCRTStartup                                   i:/mcu/gnu_tools_for_arm/11.3_rel1/bin/../lib/gcc/arm-none-eabi/11.3.1/thumb/v7-m/nofp/crt0.o
_malloc_r                                         i:/mcu/gnu_tools_for_arm/11.3_rel1/bin/../lib/gcc/arm-none-eabi/11.3.1/thumb/v7-m/nofp\libc_nano.a(libc_a-mallocr.o)
                                                  i:/mcu/gnu_tools_for_arm/11.3_rel1/bin/../lib/gcc/arm-none-eabi/11.3.1/thumb/v7-m/nofp\libc_nano.a(libc_a-reallocr.o)
                                                  i:/mcu/gnu_tools_for_arm/11.3_rel1/bin/../lib/gcc/arm-none-eabi/11.3.1/thumb/v7-m/nofp\libc_nano.a(libc_a-makebuf.o)
                                                  i:/mcu/gnu_tools_for_arm/11.3_rel1/bin/../lib/gcc/arm-none-eabi/11.3.1/thumb/v7-m/nofp\libc_nano.a(libc_a-fvwrite.o)
                                                  i:/mcu/gnu_tools_for_arm/11.3_rel1/bin/../lib/gcc/arm-none-eabi/11.3.1/thumb/v7-m/nofp\libc_nano.a(libc_a-malloc.o)
                                                  i:/mcu/gnu_tools_for_arm/11.3_rel1/bin/../lib/gcc/arm-none-eabi/11.3.1/thumb/v7-m/nofp\libc_nano.a(libc_a-findfp.o)
_malloc_usable_size_r                             i:/mcu/gnu_tools_for_arm/11.3_rel1/bin/../lib/gcc/arm-none-eabi/11.3.1/thumb/v7-m/nofp\libc_nano.a(libc_a-msizer.o)
                                                  i:/mcu/gnu_tools_for_arm/11.3_rel1/bin/../lib/gcc/arm-none-eabi/11.3.1/thumb/v7-m/nofp\libc_nano.a(libc_a-reallocr.o)
_printf_common                                    i:/mcu/gnu_tools_for_arm/11.3_rel1/bin/../lib/gcc/arm-none-eabi/11.3.1/thumb/v7-m/nofp\libc_nano.a(libc_a-nano-vfprintf_i.o)
_printf_float                                     i:/mcu/gnu_tools_for_arm/11.3_rel1/bin/../lib/gcc/arm-none-eabi/11.3.1/thumb/v7-m/nofp\libc_nano.a(libc_a-nano-vfprintf.o)
_printf_i                                         i:/mcu/gnu_tools_for_arm/11.3_rel1/bin/../lib/gcc/arm-none-eabi/11.3.1/thumb/v7-m/nofp\libc_nano.a(libc_a-nano-vfprintf_i.o)
                                                  i:/mcu/gnu_tools_for_arm/11.3_rel1/bin/../lib/gcc/arm-none-eabi/11.3.1/thumb/v7-m/nofp\libc_nano.a(libc_a-nano-vfprintf.o)
_printf_r                                         i:/mcu/gnu_tools_for_arm/11.3_rel1/bin/../lib/gcc/arm-none-eabi/11.3.1/thumb/v7-m/nofp\libc_nano.a(libc_a-printf.o)
_puts_r                                           i:/mcu/gnu_tools_for_arm/11.3_rel1/bin/../lib/gcc/arm-none-eabi/11.3.1/thumb/v7-m/nofp\libc_nano.a(libc_a-puts.o)
_read                                             build/retarget.o
                                                  i:/mcu/gnu_tools_for_arm/11.3_rel1/bin/../lib/gcc/arm-none-eabi/11.3.1/thumb/v7-m/nofp\libc_nano.a(libc_a-readr.o)
_read_r                                           i:/mcu/gnu_tools_for_arm/11.3_rel1/bin/../lib/gcc/arm-none-eabi/11.3.1/thumb/v7-m/nofp\libc_nano.a(libc_a-readr.o)
                                                  i:/mcu/gnu_tools_for_arm/11.3_rel1/bin/../lib/gcc/arm-none-eabi/11.3.1/thumb/v7-m/nofp\libc_nano.a(libc_a-stdio.o)
_realloc_r                                        i:/mcu/gnu_tools_for_arm/11.3_rel1/bin/../lib/gcc/arm-none-eabi/11.3.1/thumb/v7-m/nofp\libc_nano.a(libc_a-reallocr.o)
                                                  i:/mcu/gnu_tools_for_arm/11.3_rel1/bin/../lib/gcc/arm-none-eabi/11.3.1/thumb/v7-m/nofp\libc_nano.a(libc_a-fvwrite.o)
_reclaim_reent                                    i:/mcu/gnu_tools_for_arm/11.3_rel1/bin/../lib/gcc/arm-none-eabi/11.3.1/thumb/v7-m/nofp\libc_nano.a(libc_a-reent.o)
_sbrk                                             i:/mcu/gnu_tools_for_arm/11.3_rel1/bin/../lib/gcc/arm-none-eabi/11.3.1/thumb/v7-m/nofp\libnosys.a(sbrk.o)
                                                  i:/mcu/gnu_tools_for_arm/11.3_rel1/bin/../lib/gcc/arm-none-eabi/11.3.1/thumb/v7-m/nofp\libc_nano.a(libc_a-sbrkr.o)
_sbrk_r                                           i:/mcu/gnu_tools_for_arm/11.3_rel1/bin/../lib/gcc/arm-none-eabi/11.3.1/thumb/v7-m/nofp\libc_nano.a(libc_a-sbrkr.o)
                                                  i:/mcu/gnu_tools_for_arm/11.3_rel1/bin/../lib/gcc/arm-none-eabi/11.3.1/thumb/v7-m/nofp\libc_nano.a(libc_a-mallocr.o)
_sbss                                             build/startup_stm32f103xe.o
_sdata                                            build/startup_stm32f103xe.o
_sidata                                           build/startup_stm32f103xe.o
_stack_init                                       i:/mcu/gnu_tools_for_arm/11.3_rel1/bin/../lib/gcc/arm-none-eabi/11.3.1/thumb/v7-m/nofp/crt0.o
_start                                            i:/mcu/gnu_tools_for_arm/11.3_rel1/bin/../lib/gcc/arm-none-eabi/11.3.1/thumb/v7-m/nofp/crt0.o
_vfiprintf_r                                      i:/mcu/gnu_tools_for_arm/11.3_rel1/bin/../lib/gcc/arm-none-eabi/11.3.1/thumb/v7-m/nofp\libc_nano.a(libc_a-nano-vfprintf.o)
_vfprintf_r                                       i:/mcu/gnu_tools_for_arm/11.3_rel1/bin/../lib/gcc/arm-none-eabi/11.3.1/thumb/v7-m/nofp\libc_nano.a(libc_a-nano-vfprintf.o)
                                                  i:/mcu/gnu_tools_for_arm/11.3_rel1/bin/../lib/gcc/arm-none-eabi/11.3.1/thumb/v7-m/nofp\libc_nano.a(libc_a-printf.o)
_write                                            build/retarget.o
                                                  i:/mcu/gnu_tools_for_arm/11.3_rel1/bin/../lib/gcc/arm-none-eabi/11.3.1/thumb/v7-m/nofp\libc_nano.a(libc_a-writer.o)
_write_r                                          i:/mcu/gnu_tools_for_arm/11.3_rel1/bin/../lib/gcc/arm-none-eabi/11.3.1/thumb/v7-m/nofp\libc_nano.a(libc_a-writer.o)
                                                  i:/mcu/gnu_tools_for_arm/11.3_rel1/bin/../lib/gcc/arm-none-eabi/11.3.1/thumb/v7-m/nofp\libc_nano.a(libc_a-stdio.o)
_x_lamda                                          build/Ra_calculate.o
_y_lamda                                          build/Ra_calculate.o
_z_lamda                                          build/Ra_calculate.o
atexit                                            i:/mcu/gnu_tools_for_arm/11.3_rel1/bin/../lib/gcc/arm-none-eabi/11.3.1/thumb/v7-m/nofp/crt0.o
c_1                                               build/Ra_calculate.o
c_2                                               build/Ra_calculate.o
cdc                                               build/ColorTemperature.o
cdc_now                                           build/main.o
data1                                             build/Getdata_test.o
                                                  build/main.o
data2                                             build/Getdata_test.o
                                                  build/main.o
end                                               i:/mcu/gnu_tools_for_arm/11.3_rel1/bin/../lib/gcc/arm-none-eabi/11.3.1/thumb/v7-m/nofp\libnosys.a(sbrk.o)
errno                                             i:/mcu/gnu_tools_for_arm/11.3_rel1/bin/../lib/gcc/arm-none-eabi/11.3.1/thumb/v7-m/nofp\libc_nano.a(libc_a-reent.o)
                                                  i:/mcu/gnu_tools_for_arm/11.3_rel1/bin/../lib/gcc/arm-none-eabi/11.3.1/thumb/v7-m/nofp\libc_nano.a(libc_a-sbrkr.o)
                                                  i:/mcu/gnu_tools_for_arm/11.3_rel1/bin/../lib/gcc/arm-none-eabi/11.3.1/thumb/v7-m/nofp\libc_nano.a(libc_a-isattyr.o)
                                                  i:/mcu/gnu_tools_for_arm/11.3_rel1/bin/../lib/gcc/arm-none-eabi/11.3.1/thumb/v7-m/nofp\libc_nano.a(libc_a-fstatr.o)
                                                  i:/mcu/gnu_tools_for_arm/11.3_rel1/bin/../lib/gcc/arm-none-eabi/11.3.1/thumb/v7-m/nofp\libc_nano.a(libc_a-writer.o)
                                                  i:/mcu/gnu_tools_for_arm/11.3_rel1/bin/../lib/gcc/arm-none-eabi/11.3.1/thumb/v7-m/nofp\libc_nano.a(libc_a-readr.o)
                                                  i:/mcu/gnu_tools_for_arm/11.3_rel1/bin/../lib/gcc/arm-none-eabi/11.3.1/thumb/v7-m/nofp\libc_nano.a(libc_a-lseekr.o)
                                                  i:/mcu/gnu_tools_for_arm/11.3_rel1/bin/../lib/gcc/arm-none-eabi/11.3.1/thumb/v7-m/nofp\libc_nano.a(libc_a-closer.o)
exit                                              i:/mcu/gnu_tools_for_arm/11.3_rel1/bin/../lib/gcc/arm-none-eabi/11.3.1/thumb/v7-m/nofp\libc_nano.a(libc_a-exit.o)
                                                  i:/mcu/gnu_tools_for_arm/11.3_rel1/bin/../lib/gcc/arm-none-eabi/11.3.1/thumb/v7-m/nofp/crt0.o
fabs                                              i:/mcu/gnu_tools_for_arm/11.3_rel1/bin/../lib/gcc/arm-none-eabi/11.3.1/thumb/v7-m/nofp\libm.a(libm_a-s_fabs.o)
                                                  i:/mcu/gnu_tools_for_arm/11.3_rel1/bin/../lib/gcc/arm-none-eabi/11.3.1/thumb/v7-m/nofp\libm.a(libm_a-e_pow.o)
fflush                                            i:/mcu/gnu_tools_for_arm/11.3_rel1/bin/../lib/gcc/arm-none-eabi/11.3.1/thumb/v7-m/nofp\libc_nano.a(libc_a-fflush.o)
finite                                            i:/mcu/gnu_tools_for_arm/11.3_rel1/bin/../lib/gcc/arm-none-eabi/11.3.1/thumb/v7-m/nofp\libm.a(libm_a-s_finite.o)
                                                  i:/mcu/gnu_tools_for_arm/11.3_rel1/bin/../lib/gcc/arm-none-eabi/11.3.1/thumb/v7-m/nofp\libm.a(libm_a-w_pow.o)
free                                              i:/mcu/gnu_tools_for_arm/11.3_rel1/bin/../lib/gcc/arm-none-eabi/11.3.1/thumb/v7-m/nofp\libc_nano.a(libc_a-malloc.o)
gHuart                                            build/retarget.o
g_pfnVectors                                      build/startup_stm32f103xe.o
hardware_init_hook                                i:/mcu/gnu_tools_for_arm/11.3_rel1/bin/../lib/gcc/arm-none-eabi/11.3.1/thumb/v7-m/nofp/crt0.o
hi2c1                                             build/i2c.o
                                                  build/DEV_Config.o
hi2c2                                             build/i2c.o
huart1                                            build/usart.o
                                                  build/main.o
iprintf                                           i:/mcu/gnu_tools_for_arm/11.3_rel1/bin/../lib/gcc/arm-none-eabi/11.3.1/thumb/v7-m/nofp\libc_nano.a(libc_a-printf.o)
lamda_value                                       build/Ra_calculate.o
main                                              build/main.o
                                                  build/startup_stm32f103xe.o
                                                  i:/mcu/gnu_tools_for_arm/11.3_rel1/bin/../lib/gcc/arm-none-eabi/11.3.1/thumb/v7-m/nofp/crt0.o
malloc                                            i:/mcu/gnu_tools_for_arm/11.3_rel1/bin/../lib/gcc/arm-none-eabi/11.3.1/thumb/v7-m/nofp\libc_nano.a(libc_a-malloc.o)
                                                  i:/mcu/gnu_tools_for_arm/11.3_rel1/bin/../lib/gcc/arm-none-eabi/11.3.1/thumb/v7-m/nofp\libc_nano.a(libc_a-setvbuf.o)
measureMode                                       build/Waveshare_AS7341.o
memchr                                            i:/mcu/gnu_tools_for_arm/11.3_rel1/bin/../lib/gcc/arm-none-eabi/11.3.1/thumb/v7-m/nofp\libc_nano.a(libc_a-memchr-stub.o)
                                                  i:/mcu/gnu_tools_for_arm/11.3_rel1/bin/../lib/gcc/arm-none-eabi/11.3.1/thumb/v7-m/nofp\libc_nano.a(libc_a-fvwrite.o)
                                                  i:/mcu/gnu_tools_for_arm/11.3_rel1/bin/../lib/gcc/arm-none-eabi/11.3.1/thumb/v7-m/nofp\libc_nano.a(libc_a-nano-vfprintf_i.o)
                                                  i:/mcu/gnu_tools_for_arm/11.3_rel1/bin/../lib/gcc/arm-none-eabi/11.3.1/thumb/v7-m/nofp\libc_nano.a(libc_a-nano-vfprintf.o)
memcpy                                            i:/mcu/gnu_tools_for_arm/11.3_rel1/bin/../lib/gcc/arm-none-eabi/11.3.1/thumb/v7-m/nofp\libc_nano.a(libc_a-memcpy-stub.o)
                                                  i:/mcu/gnu_tools_for_arm/11.3_rel1/bin/../lib/gcc/arm-none-eabi/11.3.1/thumb/v7-m/nofp\libc_nano.a(libc_a-reallocr.o)
                                                  i:/mcu/gnu_tools_for_arm/11.3_rel1/bin/../lib/gcc/arm-none-eabi/11.3.1/thumb/v7-m/nofp\libc_nano.a(libc_a-fvwrite.o)
memmove                                           i:/mcu/gnu_tools_for_arm/11.3_rel1/bin/../lib/gcc/arm-none-eabi/11.3.1/thumb/v7-m/nofp\libc_nano.a(libc_a-memmove.o)
                                                  i:/mcu/gnu_tools_for_arm/11.3_rel1/bin/../lib/gcc/arm-none-eabi/11.3.1/thumb/v7-m/nofp\libc_nano.a(libc_a-fvwrite.o)
memset                                            i:/mcu/gnu_tools_for_arm/11.3_rel1/bin/../lib/gcc/arm-none-eabi/11.3.1/thumb/v7-m/nofp\libc_nano.a(libc_a-memset.o)
                                                  i:/mcu/gnu_tools_for_arm/11.3_rel1/bin/../lib/gcc/arm-none-eabi/11.3.1/thumb/v7-m/nofp\libc_nano.a(libc_a-findfp.o)
                                                  build/Ra_calculate.o
                                                  build/main.o
                                                  i:/mcu/gnu_tools_for_arm/11.3_rel1/bin/../lib/gcc/arm-none-eabi/11.3.1/thumb/v7-m/nofp/crt0.o
n                                                 build/ColorTemperature.o
pFlash                                            build/stm32f1xx_hal_flash.o
                                                  build/stm32f1xx_hal_flash_ex.o
pinINT_test                                       build/pinINT_test.o
pow                                               i:/mcu/gnu_tools_for_arm/11.3_rel1/bin/../lib/gcc/arm-none-eabi/11.3.1/thumb/v7-m/nofp\libm.a(libm_a-w_pow.o)
                                                  build/Ra_calculate.o
printf                                            i:/mcu/gnu_tools_for_arm/11.3_rel1/bin/../lib/gcc/arm-none-eabi/11.3.1/thumb/v7-m/nofp\libc_nano.a(libc_a-printf.o)
                                                  build/Ra_calculate.o
                                                  build/Syns_test.o
                                                  build/pinINT_test.o
                                                  build/INT_test.o
                                                  build/Getdata_test.o
                                                  build/Waveshare_AS7341.o
puts                                              i:/mcu/gnu_tools_for_arm/11.3_rel1/bin/../lib/gcc/arm-none-eabi/11.3.1/thumb/v7-m/nofp\libc_nano.a(libc_a-puts.o)
                                                  build/Ra_calculate.o
                                                  build/Syns_test.o
                                                  build/pinINT_test.o
                                                  build/INT_test.o
                                                  build/Getflicker_test.o
                                                  build/Getdata_test.o
                                                  build/clear.o
                                                  build/Waveshare_AS7341.o
scalbn                                            i:/mcu/gnu_tools_for_arm/11.3_rel1/bin/../lib/gcc/arm-none-eabi/11.3.1/thumb/v7-m/nofp\libm.a(libm_a-s_scalbn.o)
                                                  i:/mcu/gnu_tools_for_arm/11.3_rel1/bin/../lib/gcc/arm-none-eabi/11.3.1/thumb/v7-m/nofp\libm.a(libm_a-e_pow.o)
setvbuf                                           i:/mcu/gnu_tools_for_arm/11.3_rel1/bin/../lib/gcc/arm-none-eabi/11.3.1/thumb/v7-m/nofp\libc_nano.a(libc_a-setvbuf.o)
                                                  build/retarget.o
software_init_hook                                i:/mcu/gnu_tools_for_arm/11.3_rel1/bin/../lib/gcc/arm-none-eabi/11.3.1/thumb/v7-m/nofp/crt0.o
sqrt                                              i:/mcu/gnu_tools_for_arm/11.3_rel1/bin/../lib/gcc/arm-none-eabi/11.3.1/thumb/v7-m/nofp\libm.a(libm_a-w_sqrt.o)
                                                  build/Ra_calculate.o
std_light_D_vec                                   build/Ra_calculate.o
uwTick                                            build/stm32f1xx_hal.o
uwTickFreq                                        build/stm32f1xx_hal.o
uwTickPrio                                        build/stm32f1xx_hal.o
                                                  build/stm32f1xx_hal_rcc.o
value_e                                           build/Ra_calculate.o
vfiprintf                                         i:/mcu/gnu_tools_for_arm/11.3_rel1/bin/../lib/gcc/arm-none-eabi/11.3.1/thumb/v7-m/nofp\libc_nano.a(libc_a-nano-vfprintf.o)
vfprintf                                          i:/mcu/gnu_tools_for_arm/11.3_rel1/bin/../lib/gcc/arm-none-eabi/11.3.1/thumb/v7-m/nofp\libc_nano.a(libc_a-nano-vfprintf.o)
vis_reflect_table                                 build/Ra_calculate.o
x                                                 build/ColorTemperature.o
y                                                 build/ColorTemperature.o
z                                                 build/ColorTemperature.o
